_init = __main_start + 0x00000024;
_fini = __main_start + 0x00000160;
__nnDetailNintendoSdkRuntimeObjectFileRefer = __main_start + 0x000001ac;
__nnDetailNintendoSdkRuntimeObjectFile = __main_start + 0x000001b0;
_ZN4AABB13ThreadStorageC1Ev = __main_start + 0x000001b4;
_ZN4AABB13ThreadStorageD2Ev = __main_start + 0x00000208;
_ZN4AABB22CreateNewThreadStorageEv = __main_start + 0x00000218;
_ZN4AABB23UseDefaultThreadStorageEv = __main_start + 0x00000278;
_ZN4AABB20ReleaseThreadStorageEv = __main_start + 0x00000294;
_ZN4AABB12newPermanentEdddddd = __main_start + 0x000002f0;
_ZN4AABB12newPermanentERK8BlockPos = __main_start + 0x00000364;
_ZNK5Vec3i4getXEv = __main_start + 0x000003fc;
_ZNK5Vec3i4getYEv = __main_start + 0x00000404;
_ZNK5Vec3i4getZEv = __main_start + 0x0000040c;
_ZN4AABB12newPermanentERK8BlockPosRK8BlockPos = __main_start + 0x00000414;
_ZN4AABB12newPermanentEPK4AABB = __main_start + 0x000004a4;
_ZN4AABB9resetPoolEv = __main_start + 0x000004b4;
_ZN4AABB7newTempEdddddd = __main_start + 0x000004b8;
_ZN4AABB3setEdddddd = __main_start + 0x00000550;
_ZN4AABB7newTempERK8BlockPos = __main_start + 0x000005e0;
_ZN4AABB7newTempERK8BlockPosRK8BlockPos = __main_start + 0x00000678;
_ZN4AABB7newTempEPK4AABB = __main_start + 0x00000708;
_ZN4AABBC1Edddddd = __main_start + 0x00000718;
_ZNK4AABB6equalsEPK4AABB = __main_start + 0x000007f4;
_ZN4AABB3setEPK4AABB = __main_start + 0x0000088c;
_ZN4AABB8contractEddd = __main_start + 0x000008c0;
_ZNK4AABB6expandEddd = __main_start + 0x0000091c;
_ZNK4AABB4growEddd = __main_start + 0x00000b54;
_ZNK4AABB4growEd = __main_start + 0x00000b88;
_ZNK4AABB10intersectsEPK4AABB = __main_start + 0x00000f20;
_ZNK4AABB8containsERK8BlockPos = __main_start + 0x00001080;
_ZNK4AABB8containsEP4Vec3 = __main_start + 0x000010e0;
_ZNK4AABB27containsIncludingLowerBoundEP4Vec3 = __main_start + 0x0000116c;
_ZNK4AABB7getSizeEv = __main_start + 0x000011f8;
_ZNK4AABB6shrinkEddd = __main_start + 0x00001224;
_ZNK4AABB6shrinkEd = __main_start + 0x00001234;
_ZN9AbilitiesC1Ev = __main_start + 0x00001794;
_ZNK9AbilitieseqERK9Abilities = __main_start + 0x000017bc;
_ZN9Abilities11addSaveDataEP11CompoundTag = __main_start + 0x00001860;
_ZN9Abilities12loadSaveDataEP11CompoundTag = __main_start + 0x00001aa0;
_ZN9Abilities14getFlyingSpeedEv = __main_start + 0x00001db8;
_ZN9Abilities14setFlyingSpeedEf = __main_start + 0x00001dc0;
_ZN9Abilities15getWalkingSpeedEv = __main_start + 0x00001dc8;
_ZN9Abilities15setWalkingSpeedEf = __main_start + 0x00001dd0;
_ZN9Abilities5writeEP16DataOutputStream = __main_start + 0x00001dd8;
_ZN9Abilities4readEP15DataInputStream = __main_start + 0x00001e80;
_ZNK18AbstractBlockState5cycleEPK8Property = __main_start + 0x0000a878;
_ZNK18AbstractBlockState8toStringEv = __main_start + 0x0000a91c;
_ZN20AbstractChestedHorse10staticCtorEv = __main_start + 0x0000ab28;
_ZN6Entity12isFireImmuneEv = __main_start + 0x0000f3d0;
_ZN13AbstractHorse10staticCtorEv = __main_start + 0x000103e4;
_ZN5Block17defaultBlockStateEv = __main_start + 0x00011eac;
_ZNK8BlockPos5aboveEv = __main_start + 0x00011eb4;
_ZN15AbstractIllager10staticCtorEv = __main_start + 0x00014120;
_ZN9Direction4getXEv = __main_start + 0x000144cc;
_ZN9Direction4getYEv = __main_start + 0x000144d4;
_ZN9Direction4getZEv = __main_start + 0x000144dc;
_ZN16AbstractSkeleton10staticCtorEv = __main_start + 0x00014610;
_ZNK8BlockPos5aboveEi = __main_start + 0x0001615c;
_ZNK8BlockPos5belowEv = __main_start + 0x00016280;
_ZN15DataInputStreamD1Ev = __main_start + 0x00016698;
_ZN16DataOutputStreamD1Ev = __main_start + 0x00016798;
_ZN9AgableMob10staticCtorEv = __main_start + 0x0001a98c;
_ZN5BlockC1EP8Material = __main_start + 0x0001b49c;
_ZN7AirItemC1EP5Block = __main_start + 0x0001b524;
_ZN6Animal10staticCtorEv = __main_start + 0x0001b69c;
_ZN5Block20registerDefaultStateEPK10BlockState = __main_start + 0x0001c138;
_ZN20BlockStateDefinition3anyEv = __main_start + 0x0001c140;
_ZN5Block20getStateForPlacementEP5LevelRK8BlockPosPK9DirectionfffiSt10shared_ptrI12LivingEntityE = __main_start + 0x0001c2e0;
_ZN5Block18GetInteractTooltipERK22BlockTooltipDataHolder = __main_start + 0x0001c70c;
_ZN15AreaEffectCloud10staticCtorEv = __main_start + 0x0001e33c;
_ZN9ArmorItem10staticCtorEv = __main_start + 0x00021ac8;
_ZNK8BlockPos8relativeEPK9Direction = __main_start + 0x00022004;
_ZN10ArmorStand10staticCtorEv = __main_start + 0x00023a04;
_ZN5Block13getIdWithDataEPK10BlockState = __main_start + 0x00026564;
_ZN5Arrow10staticCtorEv = __main_start + 0x00027300;
_ZN7AxeItem10staticCtorEv = __main_start + 0x0002ae5c;
_ZN5Block14spawnResourcesEP5LevelRK8BlockPosPK10BlockStatefi = __main_start + 0x0002b5e4;
_ZN5Block8mayPlaceEP5LevelRK8BlockPos = __main_start + 0x0002b7e4;
_ZN5Block15neighborChangedEPK10BlockStateP5LevelRK8BlockPosP5BlockRK8BlockPos = __main_start + 0x0002bdd0;
_ZN11BlockEntityC1Ev = __main_start + 0x0002c298;
_ZN11BlockEntity4saveEP11CompoundTag = __main_start + 0x0002c95c;
_ZN11BlockEntity4loadEP11CompoundTag = __main_start + 0x0002cb2c;
_ZN13BannerPattern10staticCtorEv = __main_start + 0x0002ddd8;
_ZN5BlockC1EP8MaterialPK13MaterialColor = __main_start + 0x00031db8;
_ZN5Block8onRemoveEP5LevelRK8BlockPosPK10BlockState = __main_start + 0x00031e54;
_ZN5Block13playerDestroyEP5LevelSt10shared_ptrI6PlayerERK8BlockPosPK10BlockStateSt10shared_ptrI11BlockEntityE12not_null_ptrI12ItemInstanceE = __main_start + 0x00031e58;
_ZN5Block12triggerEventEPK10BlockStateP5LevelRK8BlockPosii = __main_start + 0x00032168;
_ZNK8BlockPos5northEv = __main_start + 0x0003482c;
_ZNK8BlockPos5southEv = __main_start + 0x00034848;
_ZNK8BlockPos4westEv = __main_start + 0x00034864;
_ZNK8BlockPos4eastEv = __main_start + 0x00034880;
_ZN3Bat10staticCtorEv = __main_start + 0x00035d34;
_ZN5Block11setPlacedByEP5LevelRK8BlockPosPK10BlockStateSt10shared_ptrI12LivingEntityE12not_null_ptrI12ItemInstanceE = __main_start + 0x00037498;
_ZN5Block13registerIconsEP12IconRegister = __main_start + 0x000376b4;
_ZN17BeaconBlockEntity10staticCtorEv = __main_start + 0x000378a0;
_ZN11BlockEntity12triggerEventEii = __main_start + 0x00039618;
_ZNK8BlockPos6equalsERK8BlockPos = __main_start + 0x0003abf4;
_ZN5Block6fallOnEP5LevelRK8BlockPosSt10shared_ptrI6EntityEf = __main_start + 0x0003acd8;
_ZN5Block23updateEntityAfterFallOnEP5LevelSt10shared_ptrI6EntityE = __main_start + 0x0003ad98;
_ZN8BlockPosC1Eiii = __main_start + 0x0003da88;
_ZN5Biome10staticCtorEv = __main_start + 0x0003effc;
_ZN5Block5getIdEP5Block = __main_start + 0x0004258c;
_ZN11BiomeSource6updateEv = __main_start + 0x00049c3c;
_ZN12BirchFeature10staticCtorEv = __main_start + 0x0004a504;
_ZN5Blaze10staticCtorEv = __main_start + 0x0004ac88;
_ZN5Block22CreateNewThreadStorageEv = __main_start + 0x0004bc34;
_ZN5Block12existsWithIdEi = __main_start + 0x0004bcb4;
_ZN5Block12isValidSpawnEPK10BlockStateSt10shared_ptrI6EntityE = __main_start + 0x0004bd70;
_ZN5Block13GetHitTooltipERK22BlockTooltipDataHolder = __main_start + 0x0004bd78;
_ZN5Block11getMapColorEPK10BlockStateP11LevelSourceRK8BlockPos = __main_start + 0x0004bdfc;
_ZN5Block13getBlockStateEi = __main_start + 0x0004be04;
_ZN5Block29convertBlockStateToLegacyDataEPK10BlockState = __main_start + 0x0004be08;
_ZN5Block31fillVirtualBlockStatePropertiesEPK10BlockStateP11LevelSourceRK8BlockPos = __main_start + 0x0004be2c;
_ZN5Block6rotateEPK10BlockStateP8Rotation = __main_start + 0x0004be34;
_ZN5Block6mirrorEPK10BlockStateP6Mirror = __main_start + 0x0004be3c;
_ZN5Block4initEP8MaterialPK13MaterialColor = __main_start + 0x0004be44;
_ZN5BlockD0Ev = __main_start + 0x0004bee4;
_ZN5Block11DerivedInitEv = __main_start + 0x0004bf4c;
_ZN5Block13sendBlockDataEh = __main_start + 0x0004bfbc;
_ZN5Block26setBaseItemTypeAndMaterialEii = __main_start + 0x0004bfc4;
_ZN5Block15getBaseItemTypeEv = __main_start + 0x0004bfcc;
_ZN5Block12setSoundTypeEPK9SoundType = __main_start + 0x0004bfd4;
_ZN5Block13setLightBlockEi = __main_start + 0x0004bfdc;
_ZN5Block16setLightEmissionEf = __main_start + 0x0004bfe4;
_ZN5Block14setExplodeableEf = __main_start + 0x0004bff8;
_ZN5Block19isSolidBlockingCubeEPK10BlockState = __main_start + 0x0004c0b8;
_ZN5Block37isSolidBlockingCubeAndNotSignalSourceEPK10BlockState = __main_start + 0x0004c104;
_ZN5Block14isViewBlockingEPK10BlockState = __main_start + 0x0004c168;
_ZN5Block12isCubeShapedEPK10BlockState = __main_start + 0x0004c1b8;
_ZN5Block25hasCustomBreakingProgressEPK10BlockState = __main_start + 0x0004c1c0;
_ZN5Block14isPathfindableEP11LevelSourceRK8BlockPos = __main_start + 0x0004c1c8;
_ZN5Block14getRenderShapeEPK10BlockState = __main_start + 0x0004c1f0;
_ZN5Block21hasInHandRenderOffsetEv = __main_start + 0x0004c1f8;
_ZN5Block19mayReplaceWithPlaceEP11LevelSourceRK8BlockPos = __main_start + 0x0004c200;
_ZN5Block14setDestroyTimeEf = __main_start + 0x0004c208;
_ZN5Block17setIndestructibleEv = __main_start + 0x0004c228;
_ZN5Block16isIndestructibleEv = __main_start + 0x0004c25c;
_ZN5Block15getDestroySpeedEPK10BlockStateP5LevelRK8BlockPos = __main_start + 0x0004c274;
_ZN5Block10setTickingEb = __main_start + 0x0004c27c;
_ZN5Block9isTickingEv = __main_start + 0x0004c288;
_ZN5Block13disableMipmapEv = __main_start + 0x0004c290;
_ZN5Block18setSemiTransparentEv = __main_start + 0x0004c298;
_ZN5Block8getShapeEPK10BlockStateP11LevelSourceRK8BlockPos = __main_start + 0x0004c2a4;
_ZN5Block13getLightColorEPK10BlockStateP11LevelSourceRK8BlockPosi = __main_start + 0x0004c2b4;
_ZN5Block16shouldRenderFaceEPK10BlockStateP11LevelSourceRK8BlockPosPK9Direction = __main_start + 0x0004c3c0;
_ZN5Block29neighbourVisibleThroughShapesEPK15arrayWithLengthIPK4AABBEP11LevelSourceRK8BlockPosRP9Direction = __main_start + 0x0004c464;
_ZN5Block9getShapesEPK10BlockStateP11LevelSourcePK8BlockPos = __main_start + 0x0004c4e4;
_ZN5Block28neighbourVisibleThroughShapeEPK4AABBP11LevelSourceRK8BlockPosPK9Direction = __main_start + 0x0004c5a0;
_ZN5Block11isSolidFaceEP11LevelSourceRK8BlockPosPK9Direction = __main_start + 0x0004ca50;
_ZN5Block17getBlockFaceShapeEP11LevelSourcePK10BlockStateRK8BlockPosPK9Direction = __main_start + 0x0004ca88;
_ZN5Block14getOutlineAABBEPK10BlockStateP5LevelRK8BlockPos = __main_start + 0x0004ca90;
_ZN5Block17addCollisionAABBsEPK10BlockStateP5LevelRK8BlockPosPK4AABBPSt6vectorIP4AABBSt9allocatorIP4AABBEESt10shared_ptrI6EntityEb = __main_start + 0x0004cac8;
_ZN5Block16addCollisionAABBERK8BlockPosPK4AABBPSt6vectorIP4AABBSt9allocatorIP4AABBEEPK4AABB = __main_start + 0x0004cb3c;
_ZN5Block11getClipAABBEPK10BlockStateP11LevelSourceRK8BlockPos = __main_start + 0x0004cbb4;
_ZNK5Block13isSolidRenderEPK10BlockState = __main_start + 0x0004cbcc;
_ZN5Block7mayPickEPK10BlockStateb = __main_start + 0x0004cbd4;
_ZN5Block7mayPickEv = __main_start + 0x0004cbe0;
_ZN5Block10randomTickEP5LevelRK8BlockPosPK10BlockStateP6Random = __main_start + 0x0004cbe8;
_ZN5Block4tickEP5LevelRK8BlockPosPK10BlockStateP6Random = __main_start + 0x0004cbf4;
_ZN5Block11animateTickEPK10BlockStateP5LevelRK8BlockPosP6Random = __main_start + 0x0004cbf8;
_ZN5Block7destroyEP5LevelRK8BlockPosPK10BlockState = __main_start + 0x0004cbfc;
_ZN5Block9addLightsEP5LevelRK8BlockPos = __main_start + 0x0004cc00;
_ZN5Block12getTickDelayEP5Level = __main_start + 0x0004cc04;
_ZN5Block7onPlaceEP5LevelRK8BlockPosPK10BlockState = __main_start + 0x0004cc0c;
_ZN5Block16getResourceCountEP6Random = __main_start + 0x0004cc10;
_ZN5Block11getResourceEPK10BlockStateP6Randomi = __main_start + 0x0004cc18;
_ZN5Block18getDestroyProgressEPK10BlockStateSt10shared_ptrI6PlayerEP5LevelRK8BlockPos = __main_start + 0x0004cc1c;
_ZN5Block14spawnResourcesEP5LevelRK8BlockPosPK10BlockStatei = __main_start + 0x0004ccb0;
_ZN5Block13popExperienceEP5LevelRK8BlockPosi = __main_start + 0x0004cd98;
_ZN5Block25getSpawnResourcesAuxValueEPK10BlockState = __main_start + 0x0004cfb4;
_ZN5Block22getExplosionResistanceESt10shared_ptrI6EntityE = __main_start + 0x0004cfbc;
_ZN5Block4clipEPK10BlockStateP5LevelRK8BlockPosP4Vec3P4Vec3 = __main_start + 0x0004cfcc;
_ZN5Block4clipERK8BlockPosP4Vec3P4Vec3PK4AABB = __main_start + 0x0004d040;
_ZN5Block11wasExplodedEP5LevelRK8BlockPosP9Explosion = __main_start + 0x0004d170;
_ZN5Block14getRenderLayerEv = __main_start + 0x0004d2b4;
_ZN5Block8mayPlaceEP5LevelRK8BlockPosPK9Direction = __main_start + 0x0004d2bc;
_ZN5Block7TestUseEv = __main_start + 0x0004d2c8;
_ZN5Block7TestUseEP5LevelRK8BlockPosPK10BlockStateSt10shared_ptrI6PlayerE = __main_start + 0x0004d2d0;
_ZN5Block3useEP5LevelRK8BlockPosPK10BlockStateSt10shared_ptrI6PlayerEN15InteractionHand16EInteractionHandEPK9Directionfffb = __main_start + 0x0004d2d8;
_ZN5Block6stepOnEP5LevelRK8BlockPosSt10shared_ptrI6EntityE = __main_start + 0x0004d2e0;
_ZN5Block13prepareRenderEP5LevelRK8BlockPos = __main_start + 0x0004d2e4;
_ZN5Block6attackEP5LevelRK8BlockPosSt10shared_ptrI6PlayerE = __main_start + 0x0004d2e8;
_ZN5Block18handleEntityInsideEP5LevelRK8BlockPosSt10shared_ptrI6EntityEP4Vec3 = __main_start + 0x0004d2ec;
_ZNK5Block8getColorEv = __main_start + 0x0004d2f4;
_ZN5Block8getColorEPK10BlockState = __main_start + 0x0004d2fc;
_ZN5Block8getColorEP11LevelSourceRK8BlockPosi = __main_start + 0x0004d304;
_ZN5Block8getColorEP11LevelSourceRK8BlockPos = __main_start + 0x0004d30c;
_ZN5Block8getColorEP11LevelSourceRK8BlockPosPK10BlockState = __main_start + 0x0004d31c;
_ZN5Block9getSignalEPK10BlockStateP11LevelSourceRK8BlockPosPK9Direction = __main_start + 0x0004d324;
_ZN5Block14isSignalSourceEPK10BlockState = __main_start + 0x0004d334;
_ZN5Block12entityInsideEP5LevelRK8BlockPosPK10BlockStateRKSt10shared_ptrI6EntityE = __main_start + 0x0004d33c;
_ZN5Block15getDirectSignalEPK10BlockStateP11LevelSourceRK8BlockPosPK9Direction = __main_start + 0x0004d340;
_ZN5Block15isSilkTouchableEv = __main_start + 0x0004d3a8;
_ZN5Block24getSilkTouchItemInstanceEPK10BlockState = __main_start + 0x0004d3ec;
_ZN5Block28getResourceCountForLootBonusEiP6Random = __main_start + 0x0004d46c;
_ZN5Block25isPossibleToRespawnInThisEv = __main_start + 0x0004d47c;
_ZN5Block23setNameAndDescriptionIdEii = __main_start + 0x0004d4cc;
_ZN5Block7getNameEv = __main_start + 0x0004d4d4;
_ZN5Block16getDescriptionIdEi = __main_start + 0x0004d514;
_ZN5Block19getUseDescriptionIdEv = __main_start + 0x0004d51c;
_ZN5Block19isCollectStatisticsEv = __main_start + 0x0004d524;
_ZN5Block23setNotCollectStatisticsEv = __main_start + 0x0004d52c;
_ZN5Block21getPistonPushReactionEPK10BlockState = __main_start + 0x0004d534;
_ZN5Block18getShadeBrightnessEPK10BlockState = __main_start + 0x0004d544;
_ZN5Block20getCloneItemInstanceEP5LevelRK8BlockPosPK10BlockState = __main_start + 0x0004d578;
_ZN5Block17playerWillDestroyEP5LevelRK8BlockPosPK10BlockStateSt10shared_ptrI6PlayerE = __main_start + 0x0004d5f4;
_ZN5Block10handleRainEP5LevelRK8BlockPos = __main_start + 0x0004d5f8;
_ZN5Block16canInstantlyTickEv = __main_start + 0x0004d5fc;
_ZN5Block17dropFromExplosionEP9Explosion = __main_start + 0x0004d604;
_ZN5Block10isMatchingEP5Block = __main_start + 0x0004d60c;
_ZN5Block10isMatchingEP5BlockP5Block = __main_start + 0x0004d618;
_ZN5Block21hasAnalogOutputSignalEPK10BlockState = __main_start + 0x0004d648;
_ZN5Block21getAnalogOutputSignalEPK10BlockStateP5LevelRK8BlockPos = __main_start + 0x0004d650;
_ZN5Block11setIconNameERKSt12basic_stringIwSt11char_traitsIwESt9allocatorIwEE = __main_start + 0x0004d660;
_ZN5Block11getIconNameEv = __main_start + 0x0004d688;
_ZN5Block19getTileItemIconNameEv = __main_start + 0x0004d7d0;
_ZN5Block14getIconTextureEPK9DirectionPK10BlockState = __main_start + 0x0004d810;
_ZN5Block10getTextureEP11LevelSourceRK8BlockPosPK9DirectionPK10BlockState = __main_start + 0x0004d81c;
_ZN5Block10getTextureEPK9DirectionPK10BlockState = __main_start + 0x0004d9d0;
_ZN5Block10getTextureEPK9Direction = __main_start + 0x0004d9d8;
_ZN5Block23getInventoryRenderStateEPK10BlockState = __main_start + 0x0004da24;
_ZN5Block26createBlockStateDefinitionEv = __main_start + 0x0004da2c;
_ZN5Block23getBlockStateDefinitionEv = __main_start + 0x0004da60;
_ZN5Block13getOffsetTypeEv = __main_start + 0x0004da68;
_ZN5Block9getOffsetEPK10BlockStateP11LevelSourceRK8BlockPos = __main_start + 0x0004da70;
_ZN5Block12getSoundTypeEv = __main_start + 0x0004db58;
_ZN5Block8toStringEv = __main_start + 0x0004db60;
_ZN5Block15appendHoverTextE12not_null_ptrI12ItemInstanceESt10shared_ptrI6PlayerEPSt6vectorI10HtmlStringSt9allocatorI10HtmlStringEEb = __main_start + 0x0004dc30;
_ZN5Block10staticCtorEv = __main_start + 0x0004dc34;
_ZN11BlockEntity8getLevelEv = __main_start + 0x0005e100;
_ZN11BlockEntity8setLevelEP5Level = __main_start + 0x0005e108;
_ZN11BlockEntity8hasLevelEv = __main_start + 0x0005e110;
_ZN11BlockEntity12saveMetadataEP11CompoundTag = __main_start + 0x0005e120;
_ZN11BlockEntity4tickEv = __main_start + 0x0005e2a8;
_ZN11BlockEntity18setLevelForLoadingEP5Level = __main_start + 0x0005e47c;
_ZN11BlockEntity7getDataEv = __main_start + 0x0005e480;
_ZN11BlockEntity7setDataEi = __main_start + 0x0005e4e0;
_ZN11BlockEntity10setChangedEv = __main_start + 0x0005e4e8;
_ZN11BlockEntity13distanceToSqrEddd = __main_start + 0x0005e5d0;
_ZN11BlockEntity15getViewDistanceEv = __main_start + 0x0005e65c;
_ZN11BlockEntity11getBlockPosEv = __main_start + 0x0005e668;
_ZN11BlockEntity8getBlockEv = __main_start + 0x0005e678;
_ZN11BlockEntity15getUpdatePacketEv = __main_start + 0x0005e6c4;
_ZN11BlockEntity12getUpdateTagEv = __main_start + 0x0005e6cc;
_ZN11BlockEntity29getUpdateTagForPistonMovementEv = __main_start + 0x0005e700;
_ZN11BlockEntity9isRemovedEv = __main_start + 0x0005e70c;
_ZN11BlockEntity10setRemovedEv = __main_start + 0x0005e714;
_ZN11BlockEntity12clearRemovedEv = __main_start + 0x0005e720;
_ZN11BlockEntity10clearCacheEv = __main_start + 0x0005e728;
_ZN11BlockEntity11setPositionERK8BlockPos = __main_start + 0x0005e738;
_ZN11BlockEntity15onlyOpCanSetNbtEv = __main_start + 0x0005e74c;
_ZN11BlockEntity14getDisplayNameEv = __main_start + 0x0005e784;
_ZN11MobCategory10staticCtorEv = __main_start + 0x0005e7c8;
_ZN9BlockItem16setDescriptionIdEj = __main_start + 0x0005f6b4;
_ZN5Vec3iC1Eiii = __main_start + 0x00060a40;
_ZN8BlockPosC1Ev = __main_start + 0x00061a58;
_ZN8BlockPosC1ERKSt10shared_ptrI6EntityE = __main_start + 0x00061a6c;
_ZN8BlockPosC1EP6Entity = __main_start + 0x00061a7c;
_ZN8BlockPosC1EP4Vec3 = __main_start + 0x00061a88;
_ZN8BlockPosC1ERK5Vec3i = __main_start + 0x00061a94;
_ZNK8BlockPos8relativeEPK9Directioni = __main_start + 0x00061d38;
_ZNK8BlockPos5belowEi = __main_start + 0x00061dd0;
_ZNK8BlockPos5northEi = __main_start + 0x00061dfc;
_ZNK8BlockPos5southEi = __main_start + 0x00061e28;
_ZNK8BlockPos4westEi = __main_start + 0x00061e54;
_ZNK8BlockPos4eastEi = __main_start + 0x00061e80;
_ZN8BlockPos6createEiii = __main_start + 0x000622e4;
_ZN23BlockRegionUpdatePacketD2Ev = __main_start + 0x000628cc;
_ZN6PacketD2Ev = __main_start + 0x00062960;
_ZN23BlockRegionUpdatePacketD0Ev = __main_start + 0x00062964;
_ZN23BlockRegionUpdatePacket4readEP15DataInputStream = __main_start + 0x00062dc8;
_ZN23BlockRegionUpdatePacket5writeEP16DataOutputStream = __main_start + 0x000630a4;
_ZN23BlockRegionUpdatePacket6handleEP14PacketListener = __main_start + 0x00063238;
_ZN23BlockRegionUpdatePacket16getEstimatedSizeEv = __main_start + 0x00063298;
_ZN6Blocks10staticInitEv = __main_start + 0x000632b4;
_ZNK20BlockStateDefinition8getBlockEv = __main_start + 0x00068460;
_ZN20BlockStateDefinition14BlockStateImplC2EPS_t = __main_start + 0x0006887c;
_ZNK20BlockStateDefinition14BlockStateImpl13getPropertiesEv = __main_start + 0x00068908;
_ZNK20BlockStateDefinition14BlockStateImpl11hasPropertyEPK8Property = __main_start + 0x00068920;
_ZNK20BlockStateDefinition14BlockStateImpl13getBoxedValueEPK8Property = __main_start + 0x00068928;
_ZNK20BlockStateDefinition14BlockStateImpl13setBoxedValueEPK8PropertyP5Boxed = __main_start + 0x00068938;
_ZNK20BlockStateDefinition14BlockStateImpl9getValuesEv = __main_start + 0x000689a8;
_ZNK20BlockStateDefinition14BlockStateImpl8getBlockEv = __main_start + 0x000689b8;
_ZN20BlockStateDefinition14BlockStateImpl6equalsEPK10BlockState = __main_start + 0x000689c0;
_ZNK20BlockStateDefinition14BlockStateImpl8hashCodeEv = __main_start + 0x000689cc;
_ZNK20BlockStateDefinition14BlockStateImpl11getMaterialEv = __main_start + 0x000689d4;
_ZNK20BlockStateDefinition14BlockStateImpl7isSolidEv = __main_start + 0x000689ec;
_ZNK20BlockStateDefinition14BlockStateImpl12isValidSpawnENSt3__110shared_ptrI6EntityEE = __main_start + 0x00068a04;
_ZNK20BlockStateDefinition14BlockStateImpl13getLightBlockEv = __main_start + 0x00068a74;
_ZNK20BlockStateDefinition14BlockStateImpl16getLightEmissionEv = __main_start + 0x00068a8c;
_ZNK20BlockStateDefinition14BlockStateImpl13isTranslucentEv = __main_start + 0x00068a9c;
_ZNK20BlockStateDefinition14BlockStateImpl13doesPropagateEv = __main_start + 0x00068ab4;
_ZN20BlockStateDefinition14BlockStateImpl11getMapColorEP11LevelSourceRK8BlockPos = __main_start + 0x00068acc;
_ZNK20BlockStateDefinition14BlockStateImpl6rotateEP8Rotation = __main_start + 0x00068b1c;
_ZNK20BlockStateDefinition14BlockStateImpl6mirrorEP6Mirror = __main_start + 0x00068b3c;
_ZNK20BlockStateDefinition14BlockStateImpl12isCubeShapedEv = __main_start + 0x00068b5c;
_ZNK20BlockStateDefinition14BlockStateImpl25hasCustomBreakingProgressEv = __main_start + 0x00068b74;
_ZNK20BlockStateDefinition14BlockStateImpl14getRenderShapeEv = __main_start + 0x00068b8c;
_ZNK20BlockStateDefinition14BlockStateImpl13getLightColorEP11LevelSourceRK8BlockPos = __main_start + 0x00068ba4;
_ZNK20BlockStateDefinition14BlockStateImpl18getShadeBrightnessEv = __main_start + 0x00068bd0;
_ZNK20BlockStateDefinition14BlockStateImpl19isSolidBlockingCubeEv = __main_start + 0x00068be8;
_ZNK20BlockStateDefinition14BlockStateImpl37isSolidBlockingCubeAndNotSignalSourceEv = __main_start + 0x00068c00;
_ZNK20BlockStateDefinition14BlockStateImpl14isSignalSourceEv = __main_start + 0x00068c18;
_ZNK20BlockStateDefinition14BlockStateImpl9getSignalEP11LevelSourceRK8BlockPosPK9Direction = __main_start + 0x00068c30;
_ZNK20BlockStateDefinition14BlockStateImpl21hasAnalogOutputSignalEv = __main_start + 0x00068c60;
_ZNK20BlockStateDefinition14BlockStateImpl21getAnalogOutputSignalEP5LevelRK8BlockPos = __main_start + 0x00068c78;
_ZNK20BlockStateDefinition14BlockStateImpl15getDestroySpeedEP5LevelRK8BlockPos = __main_start + 0x00068ca0;
_ZNK20BlockStateDefinition14BlockStateImpl18getDestroyProgressENSt3__110shared_ptrI6PlayerEEP5LevelRK8BlockPos = __main_start + 0x00068cc8;
_ZNK20BlockStateDefinition14BlockStateImpl15getDirectSignalEP11LevelSourceRK8BlockPosPK9Direction = __main_start + 0x00068d58;
_ZNK20BlockStateDefinition14BlockStateImpl21getPistonPushReactionEv = __main_start + 0x00068d88;
_ZNK20BlockStateDefinition14BlockStateImpl31fillVirtualBlockStatePropertiesEP11LevelSourceRK8BlockPos = __main_start + 0x00068da0;
_ZNK20BlockStateDefinition14BlockStateImpl14getOutlineAABBEP5LevelRK8BlockPos = __main_start + 0x00068dc8;
_ZNK20BlockStateDefinition14BlockStateImpl16shouldRenderFaceEP11LevelSourceRK8BlockPosPK9Direction = __main_start + 0x00068df0;
_ZNK20BlockStateDefinition14BlockStateImpl13isSolidRenderEv = __main_start + 0x00068e20;
_ZNK20BlockStateDefinition14BlockStateImpl11getClipAABBEP11LevelSourceRK8BlockPos = __main_start + 0x00068e38;
_ZNK20BlockStateDefinition14BlockStateImpl18addCollissionAABBsEP5LevelRK8BlockPosPK4AABBPNSt3__16vectorIPS6_NS9_9allocatorISB_EEEENS9_10shared_ptrI6EntityEEb = __main_start + 0x00068e60;
_ZNK20BlockStateDefinition14BlockStateImpl8getShapeEP11LevelSourceRK8BlockPos = __main_start + 0x00068f00;
_ZNK20BlockStateDefinition14BlockStateImpl4clipEP5LevelRK8BlockPosP4Vec3S7_ = __main_start + 0x00068f28;
_ZNK20BlockStateDefinition14BlockStateImpl18isTopSolidBlockingEv = __main_start + 0x00068f60;
_ZNK20BlockStateDefinition14BlockStateImpl9getOffsetEP11LevelSourceRK8BlockPos = __main_start + 0x00068f78;
_ZNK20BlockStateDefinition14BlockStateImpl12triggerEventEP5LevelRK8BlockPosii = __main_start + 0x00068fa0;
vtbl_7101026F60_func_0 = __main_start + 0x00068fd8;
_ZNK20BlockStateDefinition14BlockStateImpl15neighborChangedEP5LevelRK8BlockPosP5BlockS5_ = __main_start + 0x00068fe0;
vtbl_7101026F60_func_1 = __main_start + 0x00069018;
_ZNK20BlockStateDefinition14BlockStateImpl14isViewBlockingEv = __main_start + 0x00069020;
_ZNK20BlockStateDefinition14BlockStateImpl17getBlockFaceShapeEP11LevelSourceRK8BlockPosPK9Direction = __main_start + 0x00069038;
_ZN4Boat10staticCtorEv = __main_start + 0x00069480;
_ZN12BorderStatusC1Ei = __main_start + 0x0006e6d0;
_ZN6BufferC1Ev = __main_start + 0x00075830;
_ZN20BufferedOutputStreamC1EP12OutputStreami = __main_start + 0x0007587c;
_ZN20BufferedOutputStreamD2Ev = __main_start + 0x00075908;
_ZN20BufferedOutputStreamD0Ev = __main_start + 0x00075948;
_ZN20BufferedOutputStream5flushEv = __main_start + 0x0007596c;
_ZN20BufferedOutputStream5closeEv = __main_start + 0x000759a8;
_ZN20BufferedOutputStream5writeE15arrayWithLengthIhEjj = __main_start + 0x000759dc;
_ZN20BufferedOutputStream5writeE15arrayWithLengthIhE = __main_start + 0x00075aa4;
_ZN20BufferedOutputStream5writeEj = __main_start + 0x00075ab8;
_ZN14BufferedReaderC1Ev = __main_start + 0x00075b18;
_ZN14BufferedReaderD2Ev = __main_start + 0x00075c54;
_ZN14BufferedReaderD0Ev = __main_start + 0x00075c90;
_ZN14BufferedReader5closeEv = __main_start + 0x00075cb4;
_ZN14BufferedReader4readEv = __main_start + 0x00075cc4;
_ZN14BufferedReader4readEPwjj = __main_start + 0x00075d3c;
_ZN17BuiltInLootTables10staticCtorEv = __main_start + 0x00075f4c;
_ZN12ByteArrayTagC1Ev = __main_start + 0x0009b8e0;
_ZN12ByteArrayTagC1E15arrayWithLengthIhEb = __main_start + 0x0009b91c;
_ZN12ByteArrayTagD1Ev = __main_start + 0x0009b974;
_ZN12ByteArrayTagD0Ev = __main_start + 0x0009b9b8;
_ZN12ByteArrayTag5writeEP10DataOutput = __main_start + 0x0009b9dc;
_ZN12ByteArrayTag4loadEP9DataInputi = __main_start + 0x0009ba20;
_ZN12ByteArrayTag5getIdEv = __main_start + 0x0009bab8;
_ZN12ByteArrayTag8toStringEv = __main_start + 0x0009bac0;
_ZN12ByteArrayTag6equalsEP3Tag = __main_start + 0x0009bb18;
_ZN12ByteArrayTag4copyEv = __main_start + 0x0009bb7c;
_ZN10ByteBufferC1Ej = __main_start + 0x0009bbf0;
_ZN10ByteBufferD2Ev = __main_start + 0x0009bc7c;
_ZN10ByteBufferD0Ev = __main_start + 0x0009bcc0;
_ZN10ByteBuffer8allocateEj = __main_start + 0x0009bce4;
_ZN10ByteBuffer4flipEv = __main_start + 0x0009bd18;
_ZN10ByteBuffer11asIntBufferEv = __main_start + 0x0009be70;
_ZN10NumericTagC1Ev = __main_start + 0x0009bf28;
_ZN7ByteTag5writeEP10DataOutput = __main_start + 0x0009bf90;
_ZN7ByteTag4loadEP9DataInputi = __main_start + 0x0009bfa8;
_ZN7ByteTag5getIdEv = __main_start + 0x0009bfd8;
_ZN7ByteTag8toStringEv = __main_start + 0x0009bfe0;
_ZN7ByteTag6equalsEP3Tag = __main_start + 0x0009c038;
_ZN7ByteTag4copyEv = __main_start + 0x0009c078;
_ZN7ByteTag9getAsLongEv = __main_start + 0x0009c0ac;
_ZN7ByteTag8getAsIntEv = __main_start + 0x0009c0b4;
_ZN7ByteTag10getAsShortEv = __main_start + 0x0009c0bc;
_ZN7ByteTag9getAsByteEv = __main_start + 0x0009c0c4;
_ZN7ByteTag11getAsDoubleEv = __main_start + 0x0009c0cc;
_ZN7ByteTag10getAsFloatEv = __main_start + 0x0009c0d8;
_ZN8Calendar15GetCalenderTimeEv = __main_start + 0x0009d070;
_ZN8Calendar13GetDayOfMonthEv = __main_start + 0x0009d120;
_ZN8Calendar8GetMonthEv = __main_start + 0x0009d138;
_ZN7Chicken10staticCtorEv = __main_start + 0x000a6e2c;
_ZN8ChunkPos8ChunkPosEii = __main_start + 0x000a9a1c;
_ZN12ChunkStorageC1Ev = __main_start + 0x000a9e5c;
_ZN25ChunkVisibilityAreaPacket4readEP15DataInputStream = __main_start + 0x000a9f30;
_ZN25ChunkVisibilityAreaPacket5writeEP16DataOutputStream = __main_start + 0x000a9fac;
_ZN25ChunkVisibilityAreaPacket6handleEP14PacketListener = __main_start + 0x000aa010;
_ZN25ChunkVisibilityAreaPacket16getEstimatedSizeEv = __main_start + 0x000aa070;
_ZN21ChunkVisibilityPacket4readEP15DataInputStream = __main_start + 0x000aa11c;
_ZN21ChunkVisibilityPacket5writeEP16DataOutputStream = __main_start + 0x000aa164;
_ZN21ChunkVisibilityPacket6handleEP14PacketListener = __main_start + 0x000aa190;
_ZN21ChunkVisibilityPacket16getEstimatedSizeEv = __main_start + 0x000aa1f0;
_ZN26ClientboundAddEntityPacket4readEP15DataInputStream = __main_start + 0x000aa9ec;
_ZN26ClientboundAddEntityPacket5writeEP16DataOutputStream = __main_start + 0x000aab9c;
_ZN26ClientboundAddEntityPacket6handleEP14PacketListener = __main_start + 0x000aacbc;
_ZN26ClientboundAddEntityPacket16getEstimatedSizeEv = __main_start + 0x000aad1c;
_ZN33ClientboundAddExperienceOrbPacket4readEP15DataInputStream = __main_start + 0x000aaec4;
_ZN33ClientboundAddExperienceOrbPacket5writeEP16DataOutputStream = __main_start + 0x000aaf4c;
_ZN33ClientboundAddExperienceOrbPacket6handleEP14PacketListener = __main_start + 0x000aafcc;
_ZN33ClientboundAddExperienceOrbPacket16getEstimatedSizeEv = __main_start + 0x000ab02c;
_ZN32ClientboundAddGlobalEntityPacket4readEP15DataInputStream = __main_start + 0x000ab144;
_ZN32ClientboundAddGlobalEntityPacket5writeEP16DataOutputStream = __main_start + 0x000ab1cc;
_ZN32ClientboundAddGlobalEntityPacket6handleEP14PacketListener = __main_start + 0x000ab24c;
_ZN32ClientboundAddGlobalEntityPacket16getEstimatedSizeEv = __main_start + 0x000ab2ac;
_ZN23ClientboundAddMobPacketD2Ev = __main_start + 0x000ab7dc;
_ZN23ClientboundAddMobPacketD0Ev = __main_start + 0x000ab948;
_ZN23ClientboundAddMobPacket4readEP15DataInputStream = __main_start + 0x000ab96c;
_ZN23ClientboundAddMobPacket5writeEP16DataOutputStream = __main_start + 0x000abba0;
_ZN23ClientboundAddMobPacket6handleEP14PacketListener = __main_start + 0x000abd08;
_ZN23ClientboundAddMobPacket16getEstimatedSizeEv = __main_start + 0x000abd68;
_ZN28ClientboundAddPaintingPacket4readEP15DataInputStream = __main_start + 0x000abfe8;
_ZN28ClientboundAddPaintingPacket5writeEP16DataOutputStream = __main_start + 0x000ac0e0;
_ZN28ClientboundAddPaintingPacket6handleEP14PacketListener = __main_start + 0x000ac154;
_ZN28ClientboundAddPaintingPacket16getEstimatedSizeEv = __main_start + 0x000ac1b4;
_ZN26ClientboundAddPlayerPacketD2Ev = __main_start + 0x000ac300;
_ZN26ClientboundAddPlayerPacketD0Ev = __main_start + 0x000ac3b8;
_ZN26ClientboundAddPlayerPacket4readEP15DataInputStream = __main_start + 0x000ac618;
_ZN26ClientboundAddPlayerPacket5writeEP16DataOutputStream = __main_start + 0x000ac83c;
_ZN26ClientboundAddPlayerPacket6handleEP14PacketListener = __main_start + 0x000ac9e4;
_ZN26ClientboundAddPlayerPacket16getEstimatedSizeEv = __main_start + 0x000aca44;
_ZN24ClientboundAnimatePacket4readEP15DataInputStream = __main_start + 0x000acb88;
_ZN24ClientboundAnimatePacket5writeEP16DataOutputStream = __main_start + 0x000acbd4;
_ZN24ClientboundAnimatePacket6handleEP14PacketListener = __main_start + 0x000acc18;
_ZN24ClientboundAnimatePacket16getEstimatedSizeEv = __main_start + 0x000acc78;
_ZN26ClientboundAwardStatPacketD2Ev = __main_start + 0x000acd44;
_ZN26ClientboundAwardStatPacketD0Ev = __main_start + 0x000acd8c;
_ZN26ClientboundAwardStatPacket6handleEP14PacketListener = __main_start + 0x000acdb0;
_ZN26ClientboundAwardStatPacket4readEP15DataInputStream = __main_start + 0x000ace20;
_ZN26ClientboundAwardStatPacket5writeEP16DataOutputStream = __main_start + 0x000aceac;
_ZN26ClientboundAwardStatPacket16getEstimatedSizeEv = __main_start + 0x000acf18;
_ZN26ClientboundAwardStatPacket6isAyncEv = __main_start + 0x000acf20;
_ZN33ClientboundBlockDestructionPacket4readEP15DataInputStream = __main_start + 0x000ad000;
_ZN33ClientboundBlockDestructionPacket5writeEP16DataOutputStream = __main_start + 0x000ad05c;
_ZN33ClientboundBlockDestructionPacket6handleEP14PacketListener = __main_start + 0x000ad0ac;
_ZN33ClientboundBlockDestructionPacket16getEstimatedSizeEv = __main_start + 0x000ad10c;
_ZN43ClientboundBlockCollectionDestructionPacketD2Ev = __main_start + 0x000ad214;
_ZN43ClientboundBlockCollectionDestructionPacketD0Ev = __main_start + 0x000ad258;
_ZN43ClientboundBlockCollectionDestructionPacket4readEP15DataInputStream = __main_start + 0x000ad27c;
_ZN43ClientboundBlockCollectionDestructionPacket5writeEP16DataOutputStream = __main_start + 0x000ad34c;
_ZN43ClientboundBlockCollectionDestructionPacket6handleEP14PacketListener = __main_start + 0x000ad3ec;
_ZN43ClientboundBlockCollectionDestructionPacket16getEstimatedSizeEv = __main_start + 0x000ad44c;
_ZN32ClientboundBlockEntityDataPacketD2Ev = __main_start + 0x000ad57c;
_ZN32ClientboundBlockEntityDataPacketD0Ev = __main_start + 0x000ad5cc;
_ZN32ClientboundBlockEntityDataPacket4readEP15DataInputStream = __main_start + 0x000ad5f0;
_ZN32ClientboundBlockEntityDataPacket5writeEP16DataOutputStream = __main_start + 0x000ad660;
_ZN32ClientboundBlockEntityDataPacket6handleEP14PacketListener = __main_start + 0x000ad6c0;
_ZN32ClientboundBlockEntityDataPacket16getEstimatedSizeEv = __main_start + 0x000ad710;
_ZN27ClientboundBlockEventPacket4readEP15DataInputStream = __main_start + 0x000ad818;
_ZN27ClientboundBlockEventPacket5writeEP16DataOutputStream = __main_start + 0x000ad894;
_ZN27ClientboundBlockEventPacket6handleEP14PacketListener = __main_start + 0x000ad910;
_ZN27ClientboundBlockEventPacket16getEstimatedSizeEv = __main_start + 0x000ad970;
_ZN28ClientboundBlockUpdatePacket4readEP15DataInputStream = __main_start + 0x000adabc;
_ZN28ClientboundBlockUpdatePacket5writeEP16DataOutputStream = __main_start + 0x000adb60;
_ZN28ClientboundBlockUpdatePacket6handleEP14PacketListener = __main_start + 0x000adbe4;
_ZN28ClientboundBlockUpdatePacket16getEstimatedSizeEv = __main_start + 0x000adc44;
_ZN26ClientboundBossEventPacket4readEP15DataInputStream = __main_start + 0x000adebc;
_ZN26ClientboundBossEventPacket5writeEP16DataOutputStream = __main_start + 0x000ae17c;
_ZN26ClientboundBossEventPacket6handleEP14PacketListener = __main_start + 0x000ae304;
_ZN26ClientboundBossEventPacket16getEstimatedSizeEv = __main_start + 0x000ae3bc;
_ZN33ClientboundChangeDifficultyPacketD2Ev = __main_start + 0x000ae534;
_ZN33ClientboundChangeDifficultyPacketD0Ev = __main_start + 0x000ae55c;
_ZN33ClientboundChangeDifficultyPacket6handleEP14PacketListener = __main_start + 0x000ae580;
_ZN33ClientboundChangeDifficultyPacket4readEP15DataInputStream = __main_start + 0x000ae5e0;
_ZN33ClientboundChangeDifficultyPacket5writeEP16DataOutputStream = __main_start + 0x000ae618;
_ZN21ClientboundChatPacket4readEP15DataInputStream = __main_start + 0x000aeb8c;
_ZN21ClientboundChatPacket5writeEP16DataOutputStream = __main_start + 0x000aebcc;
_ZN21ClientboundChatPacket6handleEP14PacketListener = __main_start + 0x000aec08;
_ZN21ClientboundChatPacket16getEstimatedSizeEv = __main_start + 0x000aec58;
_ZN34ClientboundChunkBlocksUpdatePacketD2Ev = __main_start + 0x000aed24;
_ZN34ClientboundChunkBlocksUpdatePacketD0Ev = __main_start + 0x000aed80;
_ZN34ClientboundChunkBlocksUpdatePacket4readEP15DataInputStream = __main_start + 0x000af0a0;
_ZN34ClientboundChunkBlocksUpdatePacket5writeEP16DataOutputStream = __main_start + 0x000af2e4;
_ZN34ClientboundChunkBlocksUpdatePacket6handleEP14PacketListener = __main_start + 0x000af574;
_ZN34ClientboundChunkBlocksUpdatePacket16getEstimatedSizeEv = __main_start + 0x000af5d4;
_ZN29ClientboundContainerAckPacket6handleEP14PacketListener = __main_start + 0x000af724;
_ZN29ClientboundContainerAckPacket4readEP15DataInputStream = __main_start + 0x000af784;
_ZN29ClientboundContainerAckPacket5writeEP16DataOutputStream = __main_start + 0x000af7ec;
_ZN29ClientboundContainerAckPacket16getEstimatedSizeEv = __main_start + 0x000af844;
_ZN31ClientboundContainerClosePacket6handleEP14PacketListener = __main_start + 0x000af8d8;
_ZN31ClientboundContainerClosePacket4readEP15DataInputStream = __main_start + 0x000af938;
_ZN31ClientboundContainerClosePacket5writeEP16DataOutputStream = __main_start + 0x000af96c;
_ZN31ClientboundContainerClosePacket16getEstimatedSizeEv = __main_start + 0x000af984;
_ZN30ClientboundContainerOpenPacketD2Ev = __main_start + 0x000afaf8;
_ZN30ClientboundContainerOpenPacketD0Ev = __main_start + 0x000afb64;
_ZN30ClientboundContainerOpenPacket6handleEP14PacketListener = __main_start + 0x000afed0;
_ZN30ClientboundContainerOpenPacket4readEP15DataInputStream = __main_start + 0x000aff30;
_ZN30ClientboundContainerOpenPacket5writeEP16DataOutputStream = __main_start + 0x000b0118;
_ZN30ClientboundContainerOpenPacket16getEstimatedSizeEv = __main_start + 0x000b0200;
_ZN36ClientboundContainerSetContentPacketD2Ev = __main_start + 0x000b04a4;
_ZN36ClientboundContainerSetContentPacketD0Ev = __main_start + 0x000b04fc;
_ZN36ClientboundContainerSetContentPacket4readEP15DataInputStream = __main_start + 0x000b0520;
_ZN36ClientboundContainerSetContentPacket5writeEP16DataOutputStream = __main_start + 0x000b05ec;
_ZN36ClientboundContainerSetContentPacket6handleEP14PacketListener = __main_start + 0x000b06a0;
_ZN36ClientboundContainerSetContentPacket16getEstimatedSizeEv = __main_start + 0x000b0700;
_ZN33ClientboundContainerSetDataPacket6handleEP14PacketListener = __main_start + 0x000b07c4;
_ZN33ClientboundContainerSetDataPacket4readEP15DataInputStream = __main_start + 0x000b0824;
_ZN33ClientboundContainerSetDataPacket5writeEP16DataOutputStream = __main_start + 0x000b088c;
_ZN33ClientboundContainerSetDataPacket16getEstimatedSizeEv = __main_start + 0x000b08e4;
_ZN33ClientboundContainerSetSlotPacket6handleEP14PacketListener = __main_start + 0x000b09fc;
_ZN33ClientboundContainerSetSlotPacket4readEP15DataInputStream = __main_start + 0x000b0a5c;
_ZN33ClientboundContainerSetSlotPacket5writeEP16DataOutputStream = __main_start + 0x000b0ad4;
_ZN33ClientboundContainerSetSlotPacket16getEstimatedSizeEv = __main_start + 0x000b0b44;
_ZN25ClientboundCooldownPacket4readEP15DataInputStream = __main_start + 0x000b0bf0;
_ZN25ClientboundCooldownPacket5writeEP16DataOutputStream = __main_start + 0x000b0c2c;
_ZN25ClientboundCooldownPacket6handleEP14PacketListener = __main_start + 0x000b0c68;
_ZN30ClientboundCustomPayloadPacketD2Ev = __main_start + 0x000b0da8;
_ZN30ClientboundCustomPayloadPacketD0Ev = __main_start + 0x000b0df4;
_ZN30ClientboundCustomPayloadPacket4readEP15DataInputStream = __main_start + 0x000b0e18;
_ZN30ClientboundCustomPayloadPacket5writeEP16DataOutputStream = __main_start + 0x000b0f34;
_ZN30ClientboundCustomPayloadPacket6handleEP14PacketListener = __main_start + 0x000b0f94;
_ZN30ClientboundCustomPayloadPacket16getEstimatedSizeEv = __main_start + 0x000b0ff4;
_ZN32ClientboundDamageIndicatorPacket4readEP15DataInputStream = __main_start + 0x000b10c0;
_ZN32ClientboundDamageIndicatorPacket5writeEP16DataOutputStream = __main_start + 0x000b1120;
_ZN32ClientboundDamageIndicatorPacket6handleEP14PacketListener = __main_start + 0x000b1178;
_ZN32ClientboundDamageIndicatorPacket16getEstimatedSizeEv = __main_start + 0x000b11d8;
_ZN6Entity28readAdditionContructionTag_4EP11CompoundTag = __main_start + 0x000b12b8;
_ZN6Entity16PositionLocked_4Ev = __main_start + 0x000b12bc;
_ZN6Entity19SetPositionLocked_4Eb = __main_start + 0x000b12c4;
_ZN6Entity26TakeGlideCollisionDamage_4Ev = __main_start + 0x000b12c8;
_ZN6Entity25SetGlideCollisionDamage_4Eb = __main_start + 0x000b12d0;
_ZN6Entity22GetLiftForceModifier_4Ev = __main_start + 0x000b12d4;
_ZN6Entity22SetLiftForceModifier_4Ed = __main_start + 0x000b12dc;
_ZN6Entity18onLoadedFromSave_4Ev = __main_start + 0x000b12e0;
_ZN6Entity17isUsingItemFlag_4Ev = __main_start + 0x000b12e4;
_ZN6Entity18setUsingItemFlag_4Eb = __main_start + 0x000b12ec;
_ZN11BlockEntityD0Ev = __main_start + 0x000b13b0;
_ZN11BlockEntity6rotateEP8Rotation = __main_start + 0x000b13d4;
_ZN11BlockEntity6mirrorEP6Mirror = __main_start + 0x000b13d8;
_ZN5Block18isTopSolidBlockingEPK10BlockState = __main_start + 0x000b1598;
_ZN5Block22ParticlesSurviveWithinEv = __main_start + 0x000b15f0;
_ZN5Block15shouldBlockTickEP5LevelRK8BlockPosPK10BlockState = __main_start + 0x000b161c;
_ZN5Block13isLiquidBlockEv = __main_start + 0x000b1624;
_ZN5BlockD2Ev = __main_start + 0x000b1ca0;
_ZN11BlockEntityD1Ev = __main_start + 0x000b2030;
_ZN23BlockRegionUpdatePacket11getPacketIdEv = __main_start + 0x000b2510;
_ZN7ByteTagD0Ev = __main_start + 0x000b2adc;
_ZN12ChunkStorage10WaitForAllEv = __main_start + 0x000b2ed0;
_ZN12ChunkStorage25WaitIfTooManyQueuedChunksEv = __main_start + 0x000b2ed4;
_ZN25ChunkVisibilityAreaPacketD2Ev = __main_start + 0x000b2ed8;
_ZN25ChunkVisibilityAreaPacketD0Ev = __main_start + 0x000b2f00;
_ZN25ChunkVisibilityAreaPacket11getPacketIdEv = __main_start + 0x000b2f24;
_ZN21ChunkVisibilityPacketD2Ev = __main_start + 0x000b2f2c;
_ZN21ChunkVisibilityPacketD0Ev = __main_start + 0x000b2f54;
_ZN21ChunkVisibilityPacket11getPacketIdEv = __main_start + 0x000b2f78;
_ZN26ClientboundAddEntityPacketD2Ev = __main_start + 0x000b2fcc;
_ZN26ClientboundAddEntityPacketD0Ev = __main_start + 0x000b3010;
_ZN26ClientboundAddEntityPacket11getPacketIdEv = __main_start + 0x000b3034;
_ZN33ClientboundAddExperienceOrbPacketD2Ev = __main_start + 0x000b303c;
_ZN33ClientboundAddExperienceOrbPacketD0Ev = __main_start + 0x000b3064;
_ZN33ClientboundAddExperienceOrbPacket11getPacketIdEv = __main_start + 0x000b3088;
_ZN32ClientboundAddGlobalEntityPacketD2Ev = __main_start + 0x000b3090;
_ZN32ClientboundAddGlobalEntityPacketD0Ev = __main_start + 0x000b30b8;
_ZN32ClientboundAddGlobalEntityPacket11getPacketIdEv = __main_start + 0x000b30dc;
_ZN23ClientboundAddMobPacket11getPacketIdEv = __main_start + 0x000b30e4;
_ZN28ClientboundAddPaintingPacketD2Ev = __main_start + 0x000b30ec;
_ZN28ClientboundAddPaintingPacketD0Ev = __main_start + 0x000b3130;
_ZN28ClientboundAddPaintingPacket11getPacketIdEv = __main_start + 0x000b3154;
_ZN26ClientboundAddPlayerPacket11getPacketIdEv = __main_start + 0x000b315c;
_ZN24ClientboundAnimatePacketD2Ev = __main_start + 0x000b3164;
_ZN24ClientboundAnimatePacketD0Ev = __main_start + 0x000b318c;
_ZN24ClientboundAnimatePacket11getPacketIdEv = __main_start + 0x000b31b0;
_ZN26ClientboundAwardStatPacket11getPacketIdEv = __main_start + 0x000b31b8;
_ZN33ClientboundBlockDestructionPacketD2Ev = __main_start + 0x000b31c0;
_ZN33ClientboundBlockDestructionPacketD0Ev = __main_start + 0x000b31e8;
_ZN33ClientboundBlockDestructionPacket11getPacketIdEv = __main_start + 0x000b320c;
_ZN43ClientboundBlockCollectionDestructionPacket11getPacketIdEv = __main_start + 0x000b3214;
_ZN32ClientboundBlockEntityDataPacket11getPacketIdEv = __main_start + 0x000b321c;
_ZN27ClientboundBlockEventPacketD2Ev = __main_start + 0x000b3224;
_ZN27ClientboundBlockEventPacketD0Ev = __main_start + 0x000b324c;
_ZN27ClientboundBlockEventPacket11getPacketIdEv = __main_start + 0x000b3270;
_ZN28ClientboundBlockUpdatePacketD2Ev = __main_start + 0x000b3278;
_ZN28ClientboundBlockUpdatePacketD0Ev = __main_start + 0x000b32a0;
_ZN28ClientboundBlockUpdatePacket11getPacketIdEv = __main_start + 0x000b32c4;
_ZN26ClientboundBossEventPacketD2Ev = __main_start + 0x000b32cc;
_ZN26ClientboundBossEventPacketD0Ev = __main_start + 0x000b3318;
_ZN26ClientboundBossEventPacket11getPacketIdEv = __main_start + 0x000b333c;
_ZN33ClientboundChangeDifficultyPacket11getPacketIdEv = __main_start + 0x000b3344;
_ZN21ClientboundChatPacketD2Ev = __main_start + 0x000b334c;
_ZN21ClientboundChatPacketD0Ev = __main_start + 0x000b3374;
_ZN21ClientboundChatPacket11getPacketIdEv = __main_start + 0x000b3398;
_ZN34ClientboundChunkBlocksUpdatePacket11getPacketIdEv = __main_start + 0x000b33a0;
_ZN29ClientboundContainerAckPacketD2Ev = __main_start + 0x000b33a8;
_ZN29ClientboundContainerAckPacketD0Ev = __main_start + 0x000b33d0;
_ZN29ClientboundContainerAckPacket11getPacketIdEv = __main_start + 0x000b33f4;
_ZN31ClientboundContainerClosePacketD2Ev = __main_start + 0x000b33fc;
_ZN31ClientboundContainerClosePacketD0Ev = __main_start + 0x000b3424;
_ZN31ClientboundContainerClosePacket11getPacketIdEv = __main_start + 0x000b3448;
_ZN30ClientboundContainerOpenPacket11getPacketIdEv = __main_start + 0x000b3450;
_ZN36ClientboundContainerSetContentPacket11getPacketIdEv = __main_start + 0x000b3458;
_ZN33ClientboundContainerSetDataPacketD2Ev = __main_start + 0x000b3460;
_ZN33ClientboundContainerSetDataPacketD0Ev = __main_start + 0x000b3488;
_ZN33ClientboundContainerSetDataPacket11getPacketIdEv = __main_start + 0x000b34ac;
_ZN33ClientboundContainerSetSlotPacketD2Ev = __main_start + 0x000b34b4;
_ZN33ClientboundContainerSetSlotPacketD0Ev = __main_start + 0x000b34f8;
_ZN33ClientboundContainerSetSlotPacket11getPacketIdEv = __main_start + 0x000b351c;
_ZN25ClientboundCooldownPacketD2Ev = __main_start + 0x000b3524;
_ZN25ClientboundCooldownPacketD0Ev = __main_start + 0x000b354c;
_ZN25ClientboundCooldownPacket11getPacketIdEv = __main_start + 0x000b3570;
_ZN30ClientboundCustomPayloadPacket11getPacketIdEv = __main_start + 0x000b3578;
_ZN32ClientboundDamageIndicatorPacketD2Ev = __main_start + 0x000b3580;
_ZN32ClientboundDamageIndicatorPacketD0Ev = __main_start + 0x000b35a8;
_ZN32ClientboundDamageIndicatorPacket11getPacketIdEv = __main_start + 0x000b35cc;
_ZN9BlockImplD0Ev = __main_start + 0x000b383c;
_ZN6BufferD2Ev = __main_start + 0x000b3860;
_ZN6BufferD0Ev = __main_start + 0x000b3864;
_ZN3TagD1Ev = __main_start + 0x000b67a0;
_ZN10NumericTagD0Ev = __main_start + 0x000b67a4;
_ZN12ChunkStorageD2Ev = __main_start + 0x000b67c8;
_ZN12ChunkStorageD0Ev = __main_start + 0x000b67cc;
_ZN14FlexiblePacketD2Ev = __main_start + 0x000b6ab0;
j_wcslen_0 = __main_start + 0x000b6bbc;
_ZN28ClientboundEntityEventPacket4readEP15DataInputStream = __main_start + 0x000caff8;
_ZN28ClientboundEntityEventPacket5writeEP16DataOutputStream = __main_start + 0x000cb054;
_ZN28ClientboundEntityEventPacket6handleEP14PacketListener = __main_start + 0x000cb0ac;
_ZN28ClientboundEntityEventPacket16getEstimatedSizeEv = __main_start + 0x000cb10c;
_ZN24ClientboundExplodePacket4readEP15DataInputStream = __main_start + 0x000cb42c;
_ZN24ClientboundExplodePacket5writeEP16DataOutputStream = __main_start + 0x000cb5f0;
_ZN24ClientboundExplodePacket6handleEP14PacketListener = __main_start + 0x000cb7b0;
_ZN24ClientboundExplodePacket16getEstimatedSizeEv = __main_start + 0x000cb810;
_ZN26ClientboundGameEventPacket4readEP15DataInputStream = __main_start + 0x000cb954;
_ZN26ClientboundGameEventPacket5writeEP16DataOutputStream = __main_start + 0x000cb9b4;
_ZN26ClientboundGameEventPacket6handleEP14PacketListener = __main_start + 0x000cba0c;
_ZN26ClientboundGameEventPacket16getEstimatedSizeEv = __main_start + 0x000cba5c;
_ZN26ClientboundKeepAlivePacket6handleEP14PacketListener = __main_start + 0x000cbab4;
_ZN26ClientboundKeepAlivePacket4readEP15DataInputStream = __main_start + 0x000cbb14;
_ZN26ClientboundKeepAlivePacket5writeEP16DataOutputStream = __main_start + 0x000cbb44;
_ZN26ClientboundKeepAlivePacket16getEstimatedSizeEv = __main_start + 0x000cbb5c;
_ZN26ClientboundKeepAlivePacket16canBeInvalidatedEv = __main_start + 0x000cbb64;
_ZN26ClientboundKeepAlivePacket15isInvalidatedByESt10shared_ptrI6PacketE = __main_start + 0x000cbb6c;
_ZN26ClientboundKeepAlivePacket6isAyncEv = __main_start + 0x000cbb74;
_ZN27ClientboundLevelEventPacket4readEP15DataInputStream = __main_start + 0x000cbc54;
_ZN27ClientboundLevelEventPacket5writeEP16DataOutputStream = __main_start + 0x000cbce8;
_ZN27ClientboundLevelEventPacket6handleEP14PacketListener = __main_start + 0x000cbd88;
_ZN27ClientboundLevelEventPacket16getEstimatedSizeEv = __main_start + 0x000cbde8;
_ZN31ClientboundLevelParticlesPacketD2Ev = __main_start + 0x000cc118;
_ZN31ClientboundLevelParticlesPacketD0Ev = __main_start + 0x000cc15c;
_ZN31ClientboundLevelParticlesPacket4readEP15DataInputStream = __main_start + 0x000cc180;
_ZN31ClientboundLevelParticlesPacket5writeEP16DataOutputStream = __main_start + 0x000cc360;
_ZN31ClientboundLevelParticlesPacket6handleEP14PacketListener = __main_start + 0x000cc594;
_ZN31ClientboundLevelParticlesPacket16getEstimatedSizeEv = __main_start + 0x000cc5f4;
_ZN22ClientboundLoginPacket4readEP15DataInputStream = __main_start + 0x000cca88;
_ZN22ClientboundLoginPacket5writeEP16DataOutputStream = __main_start + 0x000ccdf4;
_ZN22ClientboundLoginPacket6handleEP14PacketListener = __main_start + 0x000cd0f0;
_ZN22ClientboundLoginPacket16getEstimatedSizeEv = __main_start + 0x000cd150;
_ZN28ClientboundMapItemDataPacketD2Ev = __main_start + 0x000cd358;
_ZN28ClientboundMapItemDataPacketD0Ev = __main_start + 0x000cd3dc;
_ZN28ClientboundMapItemDataPacket6handleEP14PacketListener = __main_start + 0x000cd400;
_ZN28ClientboundMapItemDataPacket4readEP15DataInputStream = __main_start + 0x000cd460;
_ZN28ClientboundMapItemDataPacket5writeEP16DataOutputStream = __main_start + 0x000cd860;
_ZN39ClientboundMGPlayerSettingsUpdatePacket4readEP15DataInputStream = __main_start + 0x000ce800;
_ZN39ClientboundMGPlayerSettingsUpdatePacket5writeEP16DataOutputStream = __main_start + 0x000ceb84;
_ZN39ClientboundMGPlayerSettingsUpdatePacket6handleEP14PacketListener = __main_start + 0x000cef04;
_ZN39ClientboundMGPlayerSettingsUpdatePacket16getEstimatedSizeEv = __main_start + 0x000cef64;
_ZN27ClientboundMoveEntityPacket4readEP15DataInputStream = __main_start + 0x000cf004;
_ZN27ClientboundMoveEntityPacket5writeEP16DataOutputStream = __main_start + 0x000cf038;
_ZN27ClientboundMoveEntityPacket6handleEP14PacketListener = __main_start + 0x000cf078;
_ZN27ClientboundMoveEntityPacket16getEstimatedSizeEv = __main_start + 0x000cf0d8;
_ZN27ClientboundMoveEntityPacket16canBeInvalidatedEv = __main_start + 0x000cf0e0;
_ZN27ClientboundMoveEntityPacket15isInvalidatedByESt10shared_ptrI6PacketE = __main_start + 0x000cf0e8;
_ZN27ClientboundMoveEntityPacket6PosRot4readEP15DataInputStream = __main_start + 0x000cf27c;
_ZN27ClientboundMoveEntityPacket6PosRot5writeEP16DataOutputStream = __main_start + 0x000cf33c;
_ZN27ClientboundMoveEntityPacket6PosRot16getEstimatedSizeEv = __main_start + 0x000cf3f0;
_ZN27ClientboundMoveEntityPacket3Pos4readEP15DataInputStream = __main_start + 0x000cf484;
_ZN27ClientboundMoveEntityPacket3Pos5writeEP16DataOutputStream = __main_start + 0x000cf51c;
_ZN27ClientboundMoveEntityPacket3Pos16getEstimatedSizeEv = __main_start + 0x000cf5a8;
_ZN27ClientboundMoveEntityPacket3Rot4readEP15DataInputStream = __main_start + 0x000cf640;
_ZN27ClientboundMoveEntityPacket3Rot5writeEP16DataOutputStream = __main_start + 0x000cf6a4;
_ZN27ClientboundMoveEntityPacket3Rot16getEstimatedSizeEv = __main_start + 0x000cf700;
_ZN28ClientboundMoveVehiclePacket4readEP15DataInputStream = __main_start + 0x000cf7b0;
_ZN28ClientboundMoveVehiclePacket5writeEP16DataOutputStream = __main_start + 0x000cf834;
_ZN28ClientboundMoveVehiclePacket6handleEP14PacketListener = __main_start + 0x000cf8b4;
_ZN31ClientboundOpenSignEditorPacketD2Ev = __main_start + 0x000cf974;
_ZN31ClientboundOpenSignEditorPacketD0Ev = __main_start + 0x000cf99c;
_ZN31ClientboundOpenSignEditorPacket6handleEP14PacketListener = __main_start + 0x000cfa10;
_ZN31ClientboundOpenSignEditorPacket4readEP15DataInputStream = __main_start + 0x000cfa70;
_ZN31ClientboundOpenSignEditorPacket5writeEP16DataOutputStream = __main_start + 0x000cfa9c;
_ZN32ClientboundPlayerAbilitiesPacket4readEP15DataInputStream = __main_start + 0x000cfbf8;
_ZN32ClientboundPlayerAbilitiesPacket5writeEP16DataOutputStream = __main_start + 0x000cfcb4;
_ZN32ClientboundPlayerAbilitiesPacket6handleEP14PacketListener = __main_start + 0x000cfdac;
_ZN32ClientboundPlayerAbilitiesPacket16getEstimatedSizeEv = __main_start + 0x000cfe0c;
_ZN32ClientboundPlayerAbilitiesPacket16canBeInvalidatedEv = __main_start + 0x000cfe24;
_ZN32ClientboundPlayerAbilitiesPacket15isInvalidatedByESt10shared_ptrI6PacketE = __main_start + 0x000cfe2c;
_ZN29ClientboundPlayerCombatPacketD2Ev = __main_start + 0x000cfe78;
_ZN29ClientboundPlayerCombatPacketD0Ev = __main_start + 0x000cfebc;
_ZN29ClientboundPlayerCombatPacket6handleEP14PacketListener = __main_start + 0x000d03fc;
_ZN29ClientboundPlayerCombatPacket4readEP15DataInputStream = __main_start + 0x000d045c;
_ZN29ClientboundPlayerCombatPacket5writeEP16DataOutputStream = __main_start + 0x000d0568;
_ZN31ClientboundPlayerPositionPacketD2Ev = __main_start + 0x000d494c;
_ZN31ClientboundPlayerPositionPacketD0Ev = __main_start + 0x000d4990;
_ZN31ClientboundPlayerPositionPacket6handleEP14PacketListener = __main_start + 0x000d4ac4;
_ZN31ClientboundPlayerPositionPacket4readEP15DataInputStream = __main_start + 0x000d4b24;
_ZN31ClientboundPlayerPositionPacket5writeEP16DataOutputStream = __main_start + 0x000d4bd0;
_ZN28ClientboundPlayerSleepPacketD2Ev = __main_start + 0x000d4d18;
_ZN28ClientboundPlayerSleepPacketD0Ev = __main_start + 0x000d4d40;
_ZN28ClientboundPlayerSleepPacket6handleEP14PacketListener = __main_start + 0x000d4dcc;
_ZN28ClientboundPlayerSleepPacket4readEP15DataInputStream = __main_start + 0x000d4e2c;
_ZN28ClientboundPlayerSleepPacket5writeEP16DataOutputStream = __main_start + 0x000d4e68;
_ZN24ClientboundPowerupPacket4readEP15DataInputStream = __main_start + 0x000d4f38;
_ZN24ClientboundPowerupPacket5writeEP16DataOutputStream = __main_start + 0x000d4f80;
_ZN24ClientboundPowerupPacket6handleEP14PacketListener = __main_start + 0x000d4fc4;
_ZN24ClientboundPowerupPacket16getEstimatedSizeEv = __main_start + 0x000d5024;
_ZN25ClientboundPreLoginPacketD2Ev = __main_start + 0x000d51a8;
_ZN25ClientboundPreLoginPacketD0Ev = __main_start + 0x000d51f4;
_ZN25ClientboundPreLoginPacket4readEP15DataInputStream = __main_start + 0x000d5218;
_ZN25ClientboundPreLoginPacket5writeEP16DataOutputStream = __main_start + 0x000d5540;
_ZN25ClientboundPreLoginPacket6handleEP14PacketListener = __main_start + 0x000d57a4;
_ZN25ClientboundPreLoginPacket16getEstimatedSizeEv = __main_start + 0x000d5804;
_ZN25ClientboundPreLoginPacket11getPacketIdEv = __main_start + 0x000d5934;
_ZN31ClientboundRemoveEntitiesPacketD2Ev = __main_start + 0x000d5a4c;
_ZN31ClientboundRemoveEntitiesPacketD0Ev = __main_start + 0x000d5a94;
_ZN31ClientboundRemoveEntitiesPacket4readEP15DataInputStream = __main_start + 0x000d5ab8;
_ZN31ClientboundRemoveEntitiesPacket5writeEP16DataOutputStream = __main_start + 0x000d5b5c;
_ZN31ClientboundRemoveEntitiesPacket6handleEP14PacketListener = __main_start + 0x000d5bd8;
_ZN31ClientboundRemoveEntitiesPacket16getEstimatedSizeEv = __main_start + 0x000d5c38;
_ZN32ClientboundRemoveMobEffectPacket4readEP15DataInputStream = __main_start + 0x000d5cc8;
_ZN32ClientboundRemoveMobEffectPacket5writeEP16DataOutputStream = __main_start + 0x000d5d10;
_ZN32ClientboundRemoveMobEffectPacket6handleEP14PacketListener = __main_start + 0x000d5d64;
_ZN32ClientboundRemoveMobEffectPacket16getEstimatedSizeEv = __main_start + 0x000d5dc4;
_ZN29ClientboundResourcePackPacketD2Ev = __main_start + 0x000d5e4c;
_ZN29ClientboundResourcePackPacketD0Ev = __main_start + 0x000d5e98;
_ZN29ClientboundResourcePackPacket6handleEP14PacketListener = __main_start + 0x000d5ebc;
_ZN29ClientboundResourcePackPacket4readEP15DataInputStream = __main_start + 0x000d5f1c;
_ZN29ClientboundResourcePackPacket5writeEP16DataOutputStream = __main_start + 0x000d6044;
_ZN24ClientboundRespawnPacket6handleEP14PacketListener = __main_start + 0x000d632c;
_ZN24ClientboundRespawnPacket4readEP15DataInputStream = __main_start + 0x000d638c;
_ZN24ClientboundRespawnPacket5writeEP16DataOutputStream = __main_start + 0x000d65c8;
_ZNK10Difficulty5getIdEv = __main_start + 0x000d67f0;
_ZN24ClientboundRespawnPacket16getEstimatedSizeEv = __main_start + 0x000d67f8;
_ZN27ClientboundRotateHeadPacket4readEP15DataInputStream = __main_start + 0x000d691c;
_ZN27ClientboundRotateHeadPacket5writeEP16DataOutputStream = __main_start + 0x000d695c;
_ZN27ClientboundRotateHeadPacket6handleEP14PacketListener = __main_start + 0x000d6998;
_ZN27ClientboundRotateHeadPacket16getEstimatedSizeEv = __main_start + 0x000d69f8;
_ZN27ClientboundRotateHeadPacket16canBeInvalidatedEv = __main_start + 0x000d6a00;
_ZN27ClientboundRotateHeadPacket15isInvalidatedByESt10shared_ptrI6PacketE = __main_start + 0x000d6a08;
_ZN27ClientboundRotateHeadPacket6isAyncEv = __main_start + 0x000d6a88;
_ZN26ClientboundSetBorderPacketD2Ev = __main_start + 0x000d6ad4;
_ZN26ClientboundSetBorderPacketD0Ev = __main_start + 0x000d6afc;
_ZN26ClientboundSetBorderPacket4readEP15DataInputStream = __main_start + 0x000d6b20;
_ZN26ClientboundSetBorderPacket5writeEP16DataOutputStream = __main_start + 0x000d6cfc;
_ZN26ClientboundSetBorderPacket6handleEP14PacketListener = __main_start + 0x000d6ed4;
_ZN26ClientboundSetCameraPacketD2Ev = __main_start + 0x000d7064;
_ZN26ClientboundSetCameraPacketD0Ev = __main_start + 0x000d708c;
_ZN26ClientboundSetCameraPacket6handleEP14PacketListener = __main_start + 0x000d70b0;
_ZN26ClientboundSetCameraPacket4readEP15DataInputStream = __main_start + 0x000d7110;
_ZN26ClientboundSetCameraPacket5writeEP16DataOutputStream = __main_start + 0x000d7138;
_ZN31ClientboundSetCarriedItemPacket4readEP15DataInputStream = __main_start + 0x000d71c4;
_ZN31ClientboundSetCarriedItemPacket5writeEP16DataOutputStream = __main_start + 0x000d71f8;
_ZN31ClientboundSetCarriedItemPacket6handleEP14PacketListener = __main_start + 0x000d7210;
_ZN31ClientboundSetCarriedItemPacket16getEstimatedSizeEv = __main_start + 0x000d7270;
_ZN31ClientboundSetCarriedItemPacket16canBeInvalidatedEv = __main_start + 0x000d7278;
_ZN31ClientboundSetCarriedItemPacket15isInvalidatedByESt10shared_ptrI6PacketE = __main_start + 0x000d7280;
_ZN30ClientboundSetEntityDataPacketD2Ev = __main_start + 0x000d72d4;
_ZN30ClientboundSetEntityDataPacketD0Ev = __main_start + 0x000d7384;
_ZN30ClientboundSetEntityDataPacket4readEP15DataInputStream = __main_start + 0x000d748c;
_ZN30ClientboundSetEntityDataPacket5writeEP16DataOutputStream = __main_start + 0x000d74d8;
_ZN30ClientboundSetEntityDataPacket6handleEP14PacketListener = __main_start + 0x000d7520;
_ZN30ClientboundSetEntityDataPacket16getEstimatedSizeEv = __main_start + 0x000d7580;
_ZN30ClientboundSetEntityLinkPacket16getEstimatedSizeEv = __main_start + 0x000d7644;
_ZN30ClientboundSetEntityLinkPacket4readEP15DataInputStream = __main_start + 0x000d764c;
_ZN30ClientboundSetEntityLinkPacket5writeEP16DataOutputStream = __main_start + 0x000d7694;
_ZN30ClientboundSetEntityLinkPacket6handleEP14PacketListener = __main_start + 0x000d76d8;
_ZN30ClientboundSetEntityLinkPacket16canBeInvalidatedEv = __main_start + 0x000d7738;
_ZN30ClientboundSetEntityLinkPacket15isInvalidatedByESt10shared_ptrI6PacketE = __main_start + 0x000d7740;
_ZN32ClientboundSetEntityMotionPacket4readEP15DataInputStream = __main_start + 0x000d796c;
_ZN32ClientboundSetEntityMotionPacket5writeEP16DataOutputStream = __main_start + 0x000d7a5c;
_ZN32ClientboundSetEntityMotionPacket6handleEP14PacketListener = __main_start + 0x000d7b44;
_ZN32ClientboundSetEntityMotionPacket16getEstimatedSizeEv = __main_start + 0x000d7ba4;
_ZN32ClientboundSetEntityMotionPacket16canBeInvalidatedEv = __main_start + 0x000d7bbc;
_ZN32ClientboundSetEntityMotionPacket15isInvalidatedByESt10shared_ptrI6PacketE = __main_start + 0x000d7bc4;
_ZN32ClientboundSetEquippedItemPacket4readEP15DataInputStream = __main_start + 0x000d7d64;
_ZN32ClientboundSetEquippedItemPacket5writeEP16DataOutputStream = __main_start + 0x000d7ec4;
_ZN32ClientboundSetEquippedItemPacket6handleEP14PacketListener = __main_start + 0x000d7ff8;
_ZN32ClientboundSetEquippedItemPacket16getEstimatedSizeEv = __main_start + 0x000d8058;
_ZN32ClientboundSetEquippedItemPacket16canBeInvalidatedEv = __main_start + 0x000d806c;
_ZN32ClientboundSetEquippedItemPacket15isInvalidatedByESt10shared_ptrI6PacketE = __main_start + 0x000d8074;
_ZN30ClientboundSetExperiencePacket4readEP15DataInputStream = __main_start + 0x000d81b0;
_ZN30ClientboundSetExperiencePacket5writeEP16DataOutputStream = __main_start + 0x000d81fc;
_ZN30ClientboundSetExperiencePacket6handleEP14PacketListener = __main_start + 0x000d8244;
_ZN30ClientboundSetExperiencePacket16getEstimatedSizeEv = __main_start + 0x000d82a4;
_ZN30ClientboundSetExperiencePacket16canBeInvalidatedEv = __main_start + 0x000d82ac;
_ZN30ClientboundSetExperiencePacket15isInvalidatedByESt10shared_ptrI6PacketE = __main_start + 0x000d82b4;
_ZN26ClientboundSetHealthPacket4readEP15DataInputStream = __main_start + 0x000d8384;
_ZN26ClientboundSetHealthPacket5writeEP16DataOutputStream = __main_start + 0x000d8408;
_ZN26ClientboundSetHealthPacket6handleEP14PacketListener = __main_start + 0x000d8484;
_ZN26ClientboundSetHealthPacket16getEstimatedSizeEv = __main_start + 0x000d84e4;
_ZN26ClientboundSetHealthPacket16canBeInvalidatedEv = __main_start + 0x000d84ec;
_ZN26ClientboundSetHealthPacket15isInvalidatedByESt10shared_ptrI6PacketE = __main_start + 0x000d84f4;
_ZN30ClientboundSetPassengersPacketD2Ev = __main_start + 0x000d854c;
_ZN30ClientboundSetPassengersPacketD0Ev = __main_start + 0x000d8590;
_ZN30ClientboundSetPassengersPacket4readEP15DataInputStream = __main_start + 0x000d8750;
_ZN30ClientboundSetPassengersPacket5writeEP16DataOutputStream = __main_start + 0x000d882c;
_ZN30ClientboundSetPassengersPacket6handleEP14PacketListener = __main_start + 0x000d88c4;
_ZN30ClientboundSetPlayerTeamPacket4readEP15DataInputStream = __main_start + 0x000d8f04;
_ZN30ClientboundSetPlayerTeamPacket5writeEP16DataOutputStream = __main_start + 0x000d90a8;
_ZN30ClientboundSetPlayerTeamPacket6handleEP14PacketListener = __main_start + 0x000d91b0;
_ZN30ClientboundSetPlayerTeamPacket16getEstimatedSizeEv = __main_start + 0x000d9210;
_ZN33ClientboundSetSpawnPositionPacket4readEP15DataInputStream = __main_start + 0x000d9384;
_ZN33ClientboundSetSpawnPositionPacket5writeEP16DataOutputStream = __main_start + 0x000d93b0;
_ZN33ClientboundSetSpawnPositionPacket6handleEP14PacketListener = __main_start + 0x000d93c0;
_ZN33ClientboundSetSpawnPositionPacket16getEstimatedSizeEv = __main_start + 0x000d9420;
_ZN33ClientboundSetSpawnPositionPacket16canBeInvalidatedEv = __main_start + 0x000d9428;
_ZN33ClientboundSetSpawnPositionPacket15isInvalidatedByESt10shared_ptrI6PacketE = __main_start + 0x000d9430;
_ZN33ClientboundSetSpawnPositionPacket6isAyncEv = __main_start + 0x000d9438;
_ZN24ClientboundSetTimePacket4readEP15DataInputStream = __main_start + 0x000d94c0;
_ZN24ClientboundSetTimePacket5writeEP16DataOutputStream = __main_start + 0x000d9508;
_ZN24ClientboundSetTimePacket6handleEP14PacketListener = __main_start + 0x000d954c;
_ZN24ClientboundSetTimePacket16getEstimatedSizeEv = __main_start + 0x000d95ac;
_ZN24ClientboundSetTimePacket16canBeInvalidatedEv = __main_start + 0x000d95b4;
_ZN24ClientboundSetTimePacket15isInvalidatedByESt10shared_ptrI6PacketE = __main_start + 0x000d95bc;
_ZN24ClientboundSetTimePacket6isAyncEv = __main_start + 0x000d95c4;
_ZN26ClientboundSetTitlesPacket4readEP15DataInputStream = __main_start + 0x000d9618;
_ZN26ClientboundSetTitlesPacket5writeEP16DataOutputStream = __main_start + 0x000d9728;
_ZN26ClientboundSetTitlesPacket6handleEP14PacketListener = __main_start + 0x000d97c4;
_ZN22ClientboundSoundPacket4readEP15DataInputStream = __main_start + 0x000d99fc;
_ZN22ClientboundSoundPacket5writeEP16DataOutputStream = __main_start + 0x000d9b08;
_ZN22ClientboundSoundPacket6handleEP14PacketListener = __main_start + 0x000d9c90;
_ZN22ClientboundSoundPacket16getEstimatedSizeEv = __main_start + 0x000d9cf0;
_ZN24ClientboundTabListPacketD2Ev = __main_start + 0x000d9d38;
_ZN24ClientboundTabListPacketD0Ev = __main_start + 0x000d9d84;
_ZN24ClientboundTabListPacket4readEP15DataInputStream = __main_start + 0x000d9da8;
_ZN24ClientboundTabListPacket5writeEP16DataOutputStream = __main_start + 0x000d9ed0;
_ZN24ClientboundTabListPacket6handleEP14PacketListener = __main_start + 0x000d9f00;
_ZN31ClientboundTakeItemEntityPacket4readEP15DataInputStream = __main_start + 0x000d9f98;
_ZN31ClientboundTakeItemEntityPacket5writeEP16DataOutputStream = __main_start + 0x000d9fdc;
_ZN31ClientboundTakeItemEntityPacket6handleEP14PacketListener = __main_start + 0x000da01c;
_ZN31ClientboundTakeItemEntityPacket16getEstimatedSizeEv = __main_start + 0x000da07c;
_ZN31ClientboundTeleportEntityPacket4readEP15DataInputStream = __main_start + 0x000da1bc;
_ZN31ClientboundTeleportEntityPacket5writeEP16DataOutputStream = __main_start + 0x000da264;
_ZN31ClientboundTeleportEntityPacket6handleEP14PacketListener = __main_start + 0x000da304;
_ZN31ClientboundTeleportEntityPacket16getEstimatedSizeEv = __main_start + 0x000da364;
_ZN31ClientboundTeleportEntityPacket16canBeInvalidatedEv = __main_start + 0x000da36c;
_ZN31ClientboundTeleportEntityPacket15isInvalidatedByESt10shared_ptrI6PacketE = __main_start + 0x000da374;
_ZN33ClientboundUpdateAttributesPacketD2Ev = __main_start + 0x000da778;
_ZN33ClientboundUpdateAttributesPacketD0Ev = __main_start + 0x000da7f0;
_ZN33ClientboundUpdateAttributesPacket4readEP15DataInputStream = __main_start + 0x000da814;
_ZN33ClientboundUpdateAttributesPacket5writeEP16DataOutputStream = __main_start + 0x000dadd0;
_ZN33ClientboundUpdateAttributesPacket6handleEP14PacketListener = __main_start + 0x000daf20;
_ZN33ClientboundUpdateAttributesPacket16getEstimatedSizeEv = __main_start + 0x000daf80;
_ZN32ClientboundUpdateMobEffectPacket4readEP15DataInputStream = __main_start + 0x000db610;
_ZN32ClientboundUpdateMobEffectPacket5writeEP16DataOutputStream = __main_start + 0x000db684;
_ZN32ClientboundUpdateMobEffectPacket25tryReplaceDuplicatePacketEPSt5dequeISt10shared_ptrI6PacketESt9allocatorISt10shared_ptrI6PacketEEE = __main_start + 0x000db6f4;
_ZN32ClientboundUpdateMobEffectPacket6handleEP14PacketListener = __main_start + 0x000db708;
_ZN32ClientboundUpdateMobEffectPacket16getEstimatedSizeEv = __main_start + 0x000db768;
_ZN32ClientboundUpdateMobEffectPacket16canBeInvalidatedEv = __main_start + 0x000db770;
_ZN32ClientboundUpdateMobEffectPacket15isInvalidatedByESt10shared_ptrI6PacketE = __main_start + 0x000db778;
_ZN24ClientGamePacketListener15handleAddEntityESt10shared_ptrI26ClientboundAddEntityPacketE = __main_start + 0x000db83c;
_ZN24ClientGamePacketListener22handleAddExperienceOrbESt10shared_ptrI33ClientboundAddExperienceOrbPacketE = __main_start + 0x000db894;
_ZN24ClientGamePacketListener21handleAddGlobalEntityESt10shared_ptrI32ClientboundAddGlobalEntityPacketE = __main_start + 0x000db8ec;
_ZN24ClientGamePacketListener12handleAddMobESt10shared_ptrI23ClientboundAddMobPacketE = __main_start + 0x000db944;
_ZN24ClientGamePacketListener17handleAddPaintingESt10shared_ptrI28ClientboundAddPaintingPacketE = __main_start + 0x000db99c;
_ZN24ClientGamePacketListener15handleAddPlayerESt10shared_ptrI26ClientboundAddPlayerPacketE = __main_start + 0x000db9f4;
_ZN24ClientGamePacketListener13handleAnimateESt10shared_ptrI24ClientboundAnimatePacketE = __main_start + 0x000dba4c;
_ZN24ClientGamePacketListener13handleTextureESt10shared_ptrI13TexturePacketE = __main_start + 0x000dbaa4;
_ZN24ClientGamePacketListener15handleAwardStatESt10shared_ptrI26ClientboundAwardStatPacketE = __main_start + 0x000dbafc;
_ZN24ClientGamePacketListener32handleBlockCollectionDestructionESt10shared_ptrI43ClientboundBlockCollectionDestructionPacketE = __main_start + 0x000dbb54;
_ZN24ClientGamePacketListener20handleOpenSignEditorESt10shared_ptrI31ClientboundOpenSignEditorPacketE = __main_start + 0x000dbbac;
_ZN24ClientGamePacketListener21handleBlockEntityDataESt10shared_ptrI32ClientboundBlockEntityDataPacketE = __main_start + 0x000dbc04;
_ZN24ClientGamePacketListener16handleBlockEventESt10shared_ptrI27ClientboundBlockEventPacketE = __main_start + 0x000dbc5c;
_ZN24ClientGamePacketListener17handleBlockUpdateESt10shared_ptrI28ClientboundBlockUpdatePacketE = __main_start + 0x000dbcb4;
_ZN24ClientGamePacketListener23handleBlockRegionUpdateESt10shared_ptrI23BlockRegionUpdatePacketE = __main_start + 0x000dbd0c;
_ZN24ClientGamePacketListener10handleChatESt10shared_ptrI21ClientboundChatPacketE = __main_start + 0x000dbd64;
_ZN24ClientGamePacketListener10handleChatESt10shared_ptrI21ServerboundChatPacketE = __main_start + 0x000dbdbc;
_ZN24ClientGamePacketListener23handleChunkBlocksUpdateESt10shared_ptrI34ClientboundChunkBlocksUpdatePacketE = __main_start + 0x000dbe14;
_ZN24ClientGamePacketListener21handleChunkVisibilityESt10shared_ptrI21ChunkVisibilityPacketE = __main_start + 0x000dbe6c;
_ZN24ClientGamePacketListener25handleChunkVisibilityAreaESt10shared_ptrI25ChunkVisibilityAreaPacketE = __main_start + 0x000dbec4;
_ZN24ClientGamePacketListener17handleMapItemDataESt10shared_ptrI28ClientboundMapItemDataPacketE = __main_start + 0x000dbf1c;
_ZN24ClientGamePacketListener18handleContainerAckESt10shared_ptrI29ClientboundContainerAckPacketE = __main_start + 0x000dbf74;
_ZN24ClientGamePacketListener18handleContainerAckESt10shared_ptrI29ServerboundContainerAckPacketE = __main_start + 0x000dbfcc;
_ZN24ClientGamePacketListener20handleContainerCloseESt10shared_ptrI31ClientboundContainerClosePacketE = __main_start + 0x000dc024;
_ZN24ClientGamePacketListener20handleContainerCloseESt10shared_ptrI31ServerboundContainerClosePacketE = __main_start + 0x000dc07c;
_ZN24ClientGamePacketListener22handleContainerContentESt10shared_ptrI36ClientboundContainerSetContentPacketE = __main_start + 0x000dc0d4;
_ZN24ClientGamePacketListener19handleContainerOpenESt10shared_ptrI30ClientboundContainerOpenPacketE = __main_start + 0x000dc12c;
_ZN24ClientGamePacketListener22handleContainerSetDataESt10shared_ptrI33ClientboundContainerSetDataPacketE = __main_start + 0x000dc184;
_ZN24ClientGamePacketListener22handleContainerSetSlotESt10shared_ptrI33ClientboundContainerSetSlotPacketE = __main_start + 0x000dc1dc;
_ZN24ClientGamePacketListener19handleCustomPayloadESt10shared_ptrI30ServerboundCustomPayloadPacketE = __main_start + 0x000dc234;
_ZN24ClientGamePacketListener16handleDisconnectESt10shared_ptrI16DisconnectPacketE = __main_start + 0x000dc28c;
_ZN24ClientGamePacketListener28handleEntityActionAtPositionESt10shared_ptrI28ClientboundPlayerSleepPacketE = __main_start + 0x000dc2e4;
_ZN24ClientGamePacketListener17handleEntityEventESt10shared_ptrI28ClientboundEntityEventPacketE = __main_start + 0x000dc33c;
_ZN24ClientGamePacketListener22handleEntityLinkPacketESt10shared_ptrI30ClientboundSetEntityLinkPacketE = __main_start + 0x000dc394;
_ZN24ClientGamePacketListener31handleSetEntityPassengersPacketESt10shared_ptrI30ClientboundSetPassengersPacketE = __main_start + 0x000dc3ec;
_ZN24ClientGamePacketListener15handleGameEventESt10shared_ptrI26ClientboundGameEventPacketE = __main_start + 0x000dc444;
_ZN24ClientGamePacketListener15handleKeepAliveESt10shared_ptrI26ClientboundKeepAlivePacketE = __main_start + 0x000dc49c;
_ZN24ClientGamePacketListener15handleKeepAliveESt10shared_ptrI26ServerboundKeepAlivePacketE = __main_start + 0x000dc4f4;
_ZN24ClientGamePacketListener16handleLevelEventESt10shared_ptrI27ClientboundLevelEventPacketE = __main_start + 0x000dc54c;
_ZN24ClientGamePacketListener16handleMoveEntityESt10shared_ptrI27ClientboundMoveEntityPacketE = __main_start + 0x000dc5a4;
_ZN24ClientGamePacketListener21handleMoveEntitySmallESt10shared_ptrI21MoveEntityPacketSmallE = __main_start + 0x000dc5fc;
_ZN24ClientGamePacketListener16handleMovePlayerESt10shared_ptrI31ClientboundPlayerPositionPacketE = __main_start + 0x000dc654;
_ZN24ClientGamePacketListener16handleMovePlayerESt10shared_ptrI27ServerboundMovePlayerPacketE = __main_start + 0x000dc6ac;
_ZN24ClientGamePacketListener19handleParticleEventESt10shared_ptrI31ClientboundLevelParticlesPacketE = __main_start + 0x000dc704;
_ZN24ClientGamePacketListener21handlePlayerAbilitiesESt10shared_ptrI32ClientboundPlayerAbilitiesPacketE = __main_start + 0x000dc75c;
_ZN24ClientGamePacketListener21handlePlayerAbilitiesESt10shared_ptrI32ServerboundPlayerAbilitiesPacketE = __main_start + 0x000dc7b4;
_ZN24ClientGamePacketListener16handlePlayerInfoESt10shared_ptrI16PlayerInfoPacketE = __main_start + 0x000dc80c;
_ZN24ClientGamePacketListener14handlePreLoginESt10shared_ptrI25ClientboundPreLoginPacketE = __main_start + 0x000dc864;
_ZN24ClientGamePacketListener14handlePreLoginESt10shared_ptrI25ServerboundPreLoginPacketE = __main_start + 0x000dc8bc;
_ZN24ClientGamePacketListener18handleRemoveEntityESt10shared_ptrI31ClientboundRemoveEntitiesPacketE = __main_start + 0x000dc914;
_ZN24ClientGamePacketListener21handleRemoveMobEffectESt10shared_ptrI32ClientboundRemoveMobEffectPacketE = __main_start + 0x000dc96c;
_ZN24ClientGamePacketListener13handleRespawnESt10shared_ptrI24ClientboundRespawnPacketE = __main_start + 0x000dc9c4;
_ZN24ClientGamePacketListener15handleRotateMobESt10shared_ptrI27ClientboundRotateHeadPacketE = __main_start + 0x000dca1c;
_ZN24ClientGamePacketListener20handleSetCarriedItemESt10shared_ptrI31ClientboundSetCarriedItemPacketE = __main_start + 0x000dca74;
_ZN24ClientGamePacketListener20handleSetCarriedItemESt10shared_ptrI31ServerboundSetCarriedItemPacketE = __main_start + 0x000dcacc;
_ZN24ClientGamePacketListener19handleSetEntityDataESt10shared_ptrI30ClientboundSetEntityDataPacketE = __main_start + 0x000dcb24;
_ZN24ClientGamePacketListener21handleSetEntityMotionESt10shared_ptrI32ClientboundSetEntityMotionPacketE = __main_start + 0x000dcb7c;
_ZN24ClientGamePacketListener21handleSetEquippedItemESt10shared_ptrI32ClientboundSetEquippedItemPacketE = __main_start + 0x000dcbd4;
_ZN24ClientGamePacketListener19handleSetExperienceESt10shared_ptrI30ClientboundSetExperiencePacketE = __main_start + 0x000dcc2c;
_ZN24ClientGamePacketListener15handleSetHealthESt10shared_ptrI26ClientboundSetHealthPacketE = __main_start + 0x000dcc84;
_ZN24ClientGamePacketListener25handleSetPlayerTeamPacketESt10shared_ptrI30ClientboundSetPlayerTeamPacketE = __main_start + 0x000dccdc;
_ZN24ClientGamePacketListener14handleSetSpawnESt10shared_ptrI33ClientboundSetSpawnPositionPacketE = __main_start + 0x000dcd34;
_ZN24ClientGamePacketListener13handleSetTimeESt10shared_ptrI24ClientboundSetTimePacketE = __main_start + 0x000dcd8c;
_ZN24ClientGamePacketListener16handleSoundEventESt10shared_ptrI22ClientboundSoundPacketE = __main_start + 0x000dcde4;
_ZN24ClientGamePacketListener20handleTakeItemEntityESt10shared_ptrI31ClientboundTakeItemEntityPacketE = __main_start + 0x000dce3c;
_ZNK8DyeColor12getBlockDataEv = __main_start + 0x000deac4;
_ZNK9Direction14get3DDataValueEv = __main_start + 0x000def0c;
_ZN9Direction15from2DDataValueEi = __main_start + 0x000df400;
_ZN11CompoundTag10getBooleanERKSt12basic_stringIwSt11char_traitsIwESt9allocatorIwEE = __main_start + 0x000e1494;
_ZNK13DimensionType5getIdEv = __main_start + 0x000e15a4;
_ZN11CompoundTag8containsERKSt12basic_stringIwSt11char_traitsIwESt9allocatorIwEE = __main_start + 0x000e1d60;
_ZN11CompoundTag9getStringERKSt12basic_stringIwSt11char_traitsIwESt9allocatorIwEE = __main_start + 0x000e1e60;
_ZN11CompoundTag3putERKNSt3__112basic_stringIwNS0_11char_traitsIwEENS0_9allocatorIwEEEEP3Tag = __main_start + 0x000e1f4c;
_ZN11CompoundTag6getIntERKSt12basic_stringIwSt11char_traitsIwESt9allocatorIwEE = __main_start + 0x000e4530;
_ZN11CompoundTagEv = __main_start + 0x000e5a44;
_ZN11CompoundTagD1Ev = __main_start + 0x000e5a84;
_ZN11CompoundTagD0Ev = __main_start + 0x000e5b60;
_ZN11CompoundTag5writeEP10DataOutput = __main_start + 0x000e5b84;
_ZN11CompoundTag4loadEP9DataInputi = __main_start + 0x000e5c6c;
_ZN11CompoundTag5getIdEv = __main_start + 0x000e60f8;
_ZN11CompoundTag8containsERKSt12basic_stringIwSt11char_traitsIwESt9allocatorIwEEi = __main_start + 0x000e6460;
_ZN11CompoundTag8getShortERKSt12basic_stringIwSt11char_traitsIwESt9allocatorIwEE = __main_start + 0x000e64fc;
_ZN11CompoundTag8getFloatERKSt12basic_stringIwSt11char_traitsIwESt9allocatorIwEE = __main_start + 0x000e65a4;
_ZN11CompoundTag7getListERKSt12basic_stringIwSt11char_traitsIwESt9allocatorIwEEi = __main_start + 0x000e6764;
_ZNK11CompoundTag16fjSafeGetListTagERKSt12basic_stringIwSt11char_traitsIwESt9allocatorIwEEi = __main_start + 0x000e67ec;
_ZN11CompoundTag18stripEmptyChildrenEv = __main_start + 0x000e68d0;
_ZN11CompoundTag8toStringEv = __main_start + 0x000e6958;
_ZN11CompoundTag5printERKNSt3__112basic_stringIwNS0_11char_traitsIwEENS0_9allocatorIwEEEEPcRNS0_13basic_ostreamIwS3_EE = __main_start + 0x000e6968;
_ZNK11CompoundTag7isEmptyEv = __main_start + 0x000e696c;
_ZN11CompoundTag4copyEv = __main_start + 0x000e697c;
_ZN11CompoundTag6equalsEP3Tag = __main_start + 0x000e6a2c;
_ZN22CompressedBlockStorage3getEiii = __main_start + 0x000e79e8;
_ZN22CompressedBlockStorage10staticCtorEv = __main_start + 0x000e87e4;
_ZN22CompressedBlockStorage4tickEv = __main_start + 0x000e8898;
_ZN10Connection4sendESt10shared_ptrI6PacketE = __main_start + 0x000e9858;
_ZN15CraftItemPacketD2Ev = __main_start + 0x000f1444;
_ZN15CraftItemPacketD0Ev = __main_start + 0x000f14c8;
_ZN15CraftItemPacket6handleEP14PacketListener = __main_start + 0x000f1748;
_ZN15CraftItemPacket4readEP15DataInputStream = __main_start + 0x000f17a8;
_ZN15CraftItemPacket5writeEP16DataOutputStream = __main_start + 0x000f18f8;
_ZN15CraftItemPacket16getEstimatedSizeEv = __main_start + 0x000f1a24;
_ZN7Creeper10staticCtorEv = __main_start + 0x000f1a2c;
_ZNK12DamageSource13isBypassInvulEv = __main_start + 0x000f4ab0;
_ZN12DamageSourceC1Ev = __main_start + 0x000f4ac0;
_ZN12DamageSource15getDirectEntityEv = __main_start + 0x000f4b1c;
_ZN12DamageSource9getEntityEv = __main_start + 0x000f4b28;
_ZN12DamageSource20scalesWithDifficultyEv = __main_start + 0x000f4b30;
_ZN12DamageSource21getDeathMessagePacketESt10shared_ptrI12LivingEntityE = __main_start + 0x000f4d44;
_ZN12DamageSource4copyEv = __main_start + 0x000f4f24;
_ZN12DamageSource17getSourcePositionEv = __main_start + 0x000f4f84;
_ZN12DamageSource19GetBaseDamageSourceEv = __main_start + 0x000f4f8c;
_ZN15DataInputStreamC1EP11InputStream = __main_start + 0x000f4f90;
_ZN15DataInputStream4readEv = __main_start + 0x000f4fe8;
vtbl_710103D840_func_2 = __main_start + 0x000f4ff8;
_ZN15DataInputStream4readE15arrayWithLengthIhE = __main_start + 0x000f5000;
vtbl_710103D840_func_3 = __main_start + 0x000f5014;
_ZN15DataInputStream4readE15arrayWithLengthIhEjj = __main_start + 0x000f501c;
vtbl_710103D840_func_4 = __main_start + 0x000f502c;
_ZN15DataInputStream5closeEv = __main_start + 0x000f5034;
_ZN15DataInputStream11readBooleanEv = __main_start + 0x000f5044;
vtbl_710103D840_func_5 = __main_start + 0x000f506c;
_ZN15DataInputStream8readByteEv = __main_start + 0x000f5074;
vtbl_710103D840_func_6 = __main_start + 0x000f5094;
_ZN15DataInputStream16readUnsignedByteEv = __main_start + 0x000f509c;
vtbl_710103D840_func_7 = __main_start + 0x000f50bc;
_ZN15DataInputStream8readCharEv = __main_start + 0x000f50c4;
vtbl_710103D840_func_15 = __main_start + 0x000f5108;
_ZN15DataInputStream9readFullyE15arrayWithLengthIhE = __main_start + 0x000f5110;
vtbl_710103D840_func_8 = __main_start + 0x000f5190;
_ZN15DataInputStream9readFullyE15arrayWithLengthIcE = __main_start + 0x000f5198;
vtbl_710103D840_func_9 = __main_start + 0x000f51a4;
_ZN15DataInputStream9readBytesE15arrayWithLengthIhE = __main_start + 0x000f51ac;
_ZN15DataInputStream10readDoubleEv = __main_start + 0x000f5238;
vtbl_710103D840_func_10 = __main_start + 0x000f525c;
_ZN15DataInputStream9readFloatEv = __main_start + 0x000f5264;
vtbl_710103D840_func_11 = __main_start + 0x000f5288;
_ZN15DataInputStream7readIntEv = __main_start + 0x000f5290;
vtbl_710103D840_func_12 = __main_start + 0x000f5314;
_ZN15DataInputStream8readLongEv = __main_start + 0x000f531c;
vtbl_710103D840_func_13 = __main_start + 0x000f5428;
_ZN15DataInputStream9readShortEv = __main_start + 0x000f5430;
vtbl_710103D840_func_14 = __main_start + 0x000f5474;
_ZN15DataInputStream17readUnsignedShortEv = __main_start + 0x000f547c;
_ZN15DataInputStream7readUTFEv = __main_start + 0x000f54c0;
vtbl_710103D840_func_16 = __main_start + 0x000f5660;
_ZN15DataInputStream11readUTFCharEv = __main_start + 0x000f5668;
_ZN15DataInputStream13readPlayerUIDEv = __main_start + 0x000f5784;
vtbl_710103D840_func_17 = __main_start + 0x000f57dc;
_ZN15DataInputStream4skipEx = __main_start + 0x000f5948;
_ZN15DataInputStream9skipBytesEx = __main_start + 0x000f5958;
vtbl_710103D840_func_18 = __main_start + 0x000f5964;
_ZN16DataOutputStreamC1EP12OutputStream = __main_start + 0x000f596c;
_ZN16DataOutputStream5writeEj = __main_start + 0x000f59c8;
_ZN16DataOutputStream5flushEv = __main_start + 0x000f5a08;
_ZN16DataOutputStream5writeE15arrayWithLengthIhE = __main_start + 0x000f5a18;
_ZN16DataOutputStream10writeBytesE15arrayWithLengthIhE = __main_start + 0x000f5a34;
_ZN16DataOutputStream5writeE15arrayWithLengthIhEjj = __main_start + 0x000f5a50;
_ZN16DataOutputStream5closeEv = __main_start + 0x000f5a94;
_ZN16DataOutputStream9writeByteEh = __main_start + 0x000f5aa4;
_ZN16DataOutputStream11writeDoubleEd = __main_start + 0x000f5ac0;
_ZN16DataOutputStream10writeFloatEf = __main_start + 0x000f5b2c;
_ZN16DataOutputStream8writeIntEi = __main_start + 0x000f5b74;
_ZN16DataOutputStream9writeLongEx = __main_start + 0x000f5bf8;
_ZN16DataOutputStream10writeShortEs = __main_start + 0x000f5ccc;
_ZN16DataOutputStream18writeUnsignedShortEt = __main_start + 0x000f5d28;
_ZN16DataOutputStream9writeCharEw = __main_start + 0x000f5d7c;
_ZN16DataOutputStream10writeCharsERKSt12basic_stringIwSt11char_traitsIwESt9allocatorIwEE = __main_start + 0x000f5dd8;
_ZN16DataOutputStream12writeBooleanEb = __main_start + 0x000f5e68;
_ZN16DataOutputStream8writeUTFERKSt12basic_stringIwSt11char_traitsIwESt9allocatorIwEE = __main_start + 0x000f5eb0;
_ZN16DataOutputStream14writePlayerUIDE9PlayerUID = __main_start + 0x000f60f4;
_ZN9Dimension13isHasSkyLightEv = __main_start + 0x000f659c;
_ZN18DebugOptionsPacketD2Ev = __main_start + 0x000f72e8;
_ZN18DebugOptionsPacketD0Ev = __main_start + 0x000f7310;
_ZN18DebugOptionsPacket6handleEP14PacketListener = __main_start + 0x000f736c;
_ZN18DebugOptionsPacket4readEP15DataInputStream = __main_start + 0x000f73cc;
_ZN18DebugOptionsPacket5writeEP16DataOutputStream = __main_start + 0x000f73fc;
_ZN18DebugOptionsPacket16getEstimatedSizeEv = __main_start + 0x000f7414;
_ZN17DesertWellFeature10staticCtorEv = __main_start + 0x000f8fe0;
_ZN9Direction5Plane8iteratorEv = __main_start + 0x000f922c;
_ZN18DifficultyInstanceC1EPK9Difficultyxxf = __main_start + 0x000fa2d8;
_ZNK18DifficultyInstance19calculateDifficultyEPK9Difficultyxxf = __main_start + 0x000fa300;
_ZN9Dimension14getBiomeSourceEv = __main_start + 0x000fb418;
_ZN9Dimension17getBrightnessRampEv = __main_start + 0x000fb430;
_ZN9Direction10staticCtorEv = __main_start + 0x000fc6c0;
_ZN16DisconnectPacket4readEP15DataInputStream = __main_start + 0x00101c48;
_ZN16DisconnectPacket5writeEP16DataOutputStream = __main_start + 0x00101c78;
_ZN16DisconnectPacket6handleEP14PacketListener = __main_start + 0x00101c90;
_ZN16DisconnectPacket16getEstimatedSizeEv = __main_start + 0x00101cf0;
_ZN16DisconnectPacket16canBeInvalidatedEv = __main_start + 0x00101cf8;
_ZN16DisconnectPacket15isInvalidatedByESt10shared_ptrI6PacketE = __main_start + 0x00101d00;
_ZN9DoubleTag5writeEP10DataOutput = __main_start + 0x001096b4;
_ZN9DoubleTag4loadEP9DataInputi = __main_start + 0x001096c8;
_ZN9DoubleTag5getIdEv = __main_start + 0x001096f8;
_ZN9DoubleTag8toStringEv = __main_start + 0x00109700;
_ZN9DoubleTag4copyEv = __main_start + 0x00109758;
_ZN9DoubleTag6equalsEP3Tag = __main_start + 0x0010978c;
_ZN9DoubleTag9getAsLongEv = __main_start + 0x001097cc;
_ZN9DoubleTag8getAsIntEv = __main_start + 0x001097e8;
_ZN9DoubleTag10getAsShortEv = __main_start + 0x001097f0;
_ZN9DoubleTag9getAsByteEv = __main_start + 0x00109808;
_ZN9DoubleTag11getAsDoubleEv = __main_start + 0x00109820;
_ZN9DoubleTag10getAsFloatEv = __main_start + 0x00109828;
_ZN8DyeColor10staticCtorEv = __main_start + 0x0010ad7c;
_ZNK8DyeColor23getTextureDiffuseColorsEv = __main_start + 0x0010b82c;
_ZN12EatBlockGoal10staticCtorEv = __main_start + 0x0010d308;
_ZN11Enchantment10staticCtorEv = __main_start + 0x0010f2ac;
_ZN12Enchantments10staticCtorEv = __main_start + 0x00113ce0;
_ZN12EnderCrystal10staticCtorEv = __main_start + 0x0011cb80;
_ZN11EnderDragon10staticCtorEv = __main_start + 0x0011d4e0;
_ZN8EnderMan10staticCtorEv = __main_start + 0x001235d0;
_ZN6EndTag4loadEP9DataInputi = __main_start + 0x00129bb0;
_ZN6EndTag5writeEP10DataOutput = __main_start + 0x00129bb4;
_ZN6EndTag5getIdEv = __main_start + 0x00129bb8;
_ZN6EndTag8toStringEv = __main_start + 0x00129bc0;
_ZN6EndTag4copyEv = __main_start + 0x00129c00;
_ZN6EndTag6equalsEP3Tag = __main_start + 0x00129c2c;
_ZN14PacketListenerD2Ev = __main_start + 0x00129c88;
_ZN24ClientGamePacketListenerD0Ev = __main_start + 0x00129c8c;
_ZN14PacketListener22isServerPacketListenerEv = __main_start + 0x00129cb0;
_ZN28ClientboundEntityEventPacketD2Ev = __main_start + 0x00129cb8;
_ZN28ClientboundEntityEventPacketD0Ev = __main_start + 0x00129ce0;
_ZN28ClientboundEntityEventPacket11getPacketIdEv = __main_start + 0x00129d04;
_ZN24ClientboundExplodePacketD2Ev = __main_start + 0x00129d0c;
_ZN24ClientboundExplodePacketD0Ev = __main_start + 0x00129d50;
_ZN24ClientboundExplodePacket11getPacketIdEv = __main_start + 0x00129d74;
_ZN26ClientboundGameEventPacketD2Ev = __main_start + 0x00129d7c;
_ZN26ClientboundGameEventPacketD0Ev = __main_start + 0x00129da4;
_ZN26ClientboundGameEventPacket11getPacketIdEv = __main_start + 0x00129dc8;
_ZN26ClientboundKeepAlivePacketD2Ev = __main_start + 0x00129dd0;
_ZN26ClientboundKeepAlivePacketD0Ev = __main_start + 0x00129df8;
_ZN26ClientboundKeepAlivePacket11getPacketIdEv = __main_start + 0x00129e1c;
_ZN27ClientboundLevelEventPacketD2Ev = __main_start + 0x00129e24;
_ZN27ClientboundLevelEventPacketD0Ev = __main_start + 0x00129e4c;
_ZN27ClientboundLevelEventPacket11getPacketIdEv = __main_start + 0x00129e70;
_ZN31ClientboundLevelParticlesPacket11getPacketIdEv = __main_start + 0x00129e78;
_ZN22ClientboundLoginPacketD2Ev = __main_start + 0x00129e80;
_ZN22ClientboundLoginPacketD0Ev = __main_start + 0x00129ec4;
_ZN22ClientboundLoginPacket11getPacketIdEv = __main_start + 0x00129ee8;
_ZN28ClientboundMapItemDataPacket11getPacketIdEv = __main_start + 0x00129ef0;
_ZN39ClientboundMGPlayerSettingsUpdatePacketD2Ev = __main_start + 0x00129ef8;
_ZN39ClientboundMGPlayerSettingsUpdatePacketD0Ev = __main_start + 0x00129f3c;
_ZN39ClientboundMGPlayerSettingsUpdatePacket11getPacketIdEv = __main_start + 0x00129f60;
_ZN27ClientboundMoveEntityPacketD0Ev = __main_start + 0x00129f68;
_ZN27ClientboundMoveEntityPacket11getPacketIdEv = __main_start + 0x00129f8c;
_ZN27ClientboundMoveEntityPacket6PosRotD0Ev = __main_start + 0x00129f94;
_ZN27ClientboundMoveEntityPacket6PosRot11getPacketIdEv = __main_start + 0x00129fb8;
_ZN27ClientboundMoveEntityPacket3PosD0Ev = __main_start + 0x00129fc0;
_ZN27ClientboundMoveEntityPacket3Pos11getPacketIdEv = __main_start + 0x00129fe4;
_ZN27ClientboundMoveEntityPacketD2Ev = __main_start + 0x00129fec;
_ZN27ClientboundMoveEntityPacket3RotD0Ev = __main_start + 0x0012a014;
_ZN27ClientboundMoveEntityPacket3Rot11getPacketIdEv = __main_start + 0x0012a038;
_ZN28ClientboundMoveVehiclePacketD2Ev = __main_start + 0x0012a040;
_ZN28ClientboundMoveVehiclePacketD0Ev = __main_start + 0x0012a068;
_ZN28ClientboundMoveVehiclePacket11getPacketIdEv = __main_start + 0x0012a08c;
_ZN31ClientboundOpenSignEditorPacket11getPacketIdEv = __main_start + 0x0012a094;
_ZN30ClientboundSetEntityLinkPacketD2Ev = __main_start + 0x0012a09c;
_ZN30ClientboundSetEntityLinkPacketD0Ev = __main_start + 0x0012a0c4;
_ZN30ClientboundSetEntityLinkPacket11getPacketIdEv = __main_start + 0x0012a0e8;
_ZN32ClientboundPlayerAbilitiesPacketD2Ev = __main_start + 0x0012a0f0;
_ZN32ClientboundPlayerAbilitiesPacketD0Ev = __main_start + 0x0012a118;
_ZN32ClientboundPlayerAbilitiesPacket11getPacketIdEv = __main_start + 0x0012a13c;
_ZN29ClientboundPlayerCombatPacket11getPacketIdEv = __main_start + 0x0012a144;
_ZN31ClientboundPlayerPositionPacket11getPacketIdEv = __main_start + 0x0012a14c;
_ZN28ClientboundPlayerSleepPacket11getPacketIdEv = __main_start + 0x0012a154;
_ZN24ClientboundPowerupPacketD2Ev = __main_start + 0x0012a15c;
_ZN24ClientboundPowerupPacketD0Ev = __main_start + 0x0012a184;
_ZN24ClientboundPowerupPacket11getPacketIdEv = __main_start + 0x0012a1a8;
_ZN31ClientboundRemoveEntitiesPacket11getPacketIdEv = __main_start + 0x0012a1b0;
_ZN32ClientboundRemoveMobEffectPacketD2Ev = __main_start + 0x0012a1b8;
_ZN32ClientboundRemoveMobEffectPacketD0Ev = __main_start + 0x0012a1e0;
_ZN32ClientboundRemoveMobEffectPacket11getPacketIdEv = __main_start + 0x0012a204;
_ZN29ClientboundResourcePackPacket11getPacketIdEv = __main_start + 0x0012a20c;
_ZN24ClientboundRespawnPacketD2Ev = __main_start + 0x0012a214;
_ZN24ClientboundRespawnPacketD0Ev = __main_start + 0x0012a23c;
_ZN24ClientboundRespawnPacket11getPacketIdEv = __main_start + 0x0012a260;
_ZN27ClientboundRotateHeadPacketD2Ev = __main_start + 0x0012a268;
_ZN27ClientboundRotateHeadPacketD0Ev = __main_start + 0x0012a290;
_ZN27ClientboundRotateHeadPacket11getPacketIdEv = __main_start + 0x0012a2b4;
_ZN26ClientboundSetBorderPacket11getPacketIdEv = __main_start + 0x0012a2bc;
_ZN26ClientboundSetCameraPacket11getPacketIdEv = __main_start + 0x0012a2c4;
_ZN31ClientboundSetCarriedItemPacketD2Ev = __main_start + 0x0012a2cc;
_ZN31ClientboundSetCarriedItemPacketD0Ev = __main_start + 0x0012a2f4;
_ZN31ClientboundSetCarriedItemPacket11getPacketIdEv = __main_start + 0x0012a318;
_ZN30ClientboundSetEntityDataPacket11getPacketIdEv = __main_start + 0x0012a320;
_ZN32ClientboundSetEntityMotionPacketD2Ev = __main_start + 0x0012a328;
_ZN32ClientboundSetEntityMotionPacketD0Ev = __main_start + 0x0012a350;
_ZN32ClientboundSetEntityMotionPacket11getPacketIdEv = __main_start + 0x0012a374;
_ZN32ClientboundSetEquippedItemPacketD2Ev = __main_start + 0x0012a3a0;
_ZN32ClientboundSetEquippedItemPacketD0Ev = __main_start + 0x0012a3e4;
_ZN32ClientboundSetEquippedItemPacket11getPacketIdEv = __main_start + 0x0012a408;
_ZN30ClientboundSetExperiencePacketD2Ev = __main_start + 0x0012a410;
_ZN30ClientboundSetExperiencePacketD0Ev = __main_start + 0x0012a438;
_ZN30ClientboundSetExperiencePacket11getPacketIdEv = __main_start + 0x0012a45c;
_ZN26ClientboundSetHealthPacketD2Ev = __main_start + 0x0012a464;
_ZN26ClientboundSetHealthPacketD0Ev = __main_start + 0x0012a48c;
_ZN26ClientboundSetHealthPacket11getPacketIdEv = __main_start + 0x0012a4b0;
_ZN30ClientboundSetPassengersPacket11getPacketIdEv = __main_start + 0x0012a4b8;
_ZN30ClientboundSetPlayerTeamPacketD2Ev = __main_start + 0x0012a4c0;
_ZN30ClientboundSetPlayerTeamPacketD0Ev = __main_start + 0x0012a50c;
_ZN30ClientboundSetPlayerTeamPacket11getPacketIdEv = __main_start + 0x0012a530;
_ZN33ClientboundSetSpawnPositionPacketD2Ev = __main_start + 0x0012a538;
_ZN33ClientboundSetSpawnPositionPacketD0Ev = __main_start + 0x0012a560;
_ZN33ClientboundSetSpawnPositionPacket11getPacketIdEv = __main_start + 0x0012a584;
_ZN24ClientboundSetTimePacketD2Ev = __main_start + 0x0012a58c;
_ZN24ClientboundSetTimePacketD0Ev = __main_start + 0x0012a5b4;
_ZN24ClientboundSetTimePacket11getPacketIdEv = __main_start + 0x0012a5d8;
_ZN26ClientboundSetTitlesPacketD2Ev = __main_start + 0x0012a5e0;
_ZN26ClientboundSetTitlesPacketD0Ev = __main_start + 0x0012a624;
_ZN26ClientboundSetTitlesPacket11getPacketIdEv = __main_start + 0x0012a648;
_ZN22ClientboundSoundPacketD2Ev = __main_start + 0x0012a650;
_ZN22ClientboundSoundPacketD0Ev = __main_start + 0x0012a678;
_ZN22ClientboundSoundPacket11getPacketIdEv = __main_start + 0x0012a69c;
_ZN24ClientboundTabListPacket11getPacketIdEv = __main_start + 0x0012a6a4;
_ZN31ClientboundTakeItemEntityPacketD2Ev = __main_start + 0x0012a6ac;
_ZN31ClientboundTakeItemEntityPacketD0Ev = __main_start + 0x0012a6d4;
_ZN31ClientboundTakeItemEntityPacket11getPacketIdEv = __main_start + 0x0012a6f8;
_ZN31ClientboundTeleportEntityPacketD2Ev = __main_start + 0x0012a700;
_ZN31ClientboundTeleportEntityPacketD0Ev = __main_start + 0x0012a728;
_ZN31ClientboundTeleportEntityPacket11getPacketIdEv = __main_start + 0x0012a74c;
_ZN33ClientboundUpdateAttributesPacket11getPacketIdEv = __main_start + 0x0012a754;
_ZN32ClientboundUpdateMobEffectPacketD2Ev = __main_start + 0x0012a75c;
_ZN32ClientboundUpdateMobEffectPacketD0Ev = __main_start + 0x0012a784;
_ZN32ClientboundUpdateMobEffectPacket11getPacketIdEv = __main_start + 0x0012a7a8;
_ZN15DataInputStreamD0Ev = __main_start + 0x0012a7d4;
vtbl_710103D840_func_0 = __main_start + 0x0012a7f8;
vtbl_710103D840_func_1 = __main_start + 0x0012a800;
_ZN12DamageSourceD2Ev = __main_start + 0x0012a874;
_ZN12DamageSourceD0Ev = __main_start + 0x0012a878;
_ZN16DataOutputStreamD0Ev = __main_start + 0x0012aaac;
_ZN15CraftItemPacket11getPacketIdEv = __main_start + 0x0012ac60;
_ZN18DebugOptionsPacket11getPacketIdEv = __main_start + 0x0012addc;
_ZN16DisconnectPacketD2Ev = __main_start + 0x0012b098;
_ZN16DisconnectPacketD0Ev = __main_start + 0x0012b0c0;
_ZN16DisconnectPacket11getPacketIdEv = __main_start + 0x0012b0e4;
_ZN9DoubleTagD0Ev = __main_start + 0x0012b20c;
_ZN6EndTagD0Ev = __main_start + 0x0012bb78;
j_strlen_0 = __main_start + 0x0013ace4;
_ZN6Entity10staticCtorEv = __main_start + 0x001512e0;
_ZN6Entity4initEbP5Level = __main_start + 0x0015140c;
_ZN6EntityC1EP5Levelb = __main_start + 0x00151740;
_ZN6EntityD0Ev = __main_start + 0x00151ab4;
_ZN6Entity4killEv = __main_start + 0x00151b24;
_ZN6Entity8resetPosEv = __main_start + 0x00151b4c;
_ZN6Entity6removeEv = __main_start + 0x00151c54;
_ZN6Entity23setDropContainerContentEb = __main_start + 0x00151c68;
_ZN6Entity7setSizeEff = __main_start + 0x00151c6c;
_ZN6Entity6setRotEff = __main_start + 0x00151dac;
_ZN6Entity6setPosEddd = __main_start + 0x00151dec;
_ZN6Entity15interpolateTurnEff = __main_start + 0x00151e60;
_ZN6Entity4tickEv = __main_start + 0x00151eb8;
_ZN6Entity13setSharedFlagEib = __main_start + 0x00151f20;
_ZN6Entity8baseTickEv = __main_start + 0x00151f9c;
_ZN6Entity15isInWaterOrRainEv = __main_start + 0x00152468;
_ZN6Entity21processDimensionDelayEv = __main_start + 0x001525a8;
_ZN6Entity17getPortalWaitTimeEv = __main_start + 0x001525bc;
_ZN6Entity16setSecondsOnFireEi = __main_start + 0x001525c4;
_ZN6Entity9clearFireEv = __main_start + 0x0015264c;
_ZN6Entity10outOfWorldEv = __main_start + 0x00152654;
_ZN6Entity4moveE9MoverTypedddb = __main_start + 0x00152748;
_ZN6Entity20updateDeltaAfterMoveEP5BlockdddRdS2_S2_ = __main_start + 0x00153c44;
_ZN6Entity26setLocationFromBoundingboxEv = __main_start + 0x00153ce8;
_ZN6Entity12getSwimSoundEv = __main_start + 0x00153d44;
_ZN6Entity18getSwimSplashSoundEv = __main_start + 0x00153d54;
_ZN6Entity17checkInsideBlocksEv = __main_start + 0x00153d64;
_ZN6Entity13onInsideBlockEPK10BlockState = __main_start + 0x00153f7c;
_ZN6Entity13playStepSoundERK8BlockPosP5Block = __main_start + 0x00153f80;
_ZN6Entity12playFlySoundEf = __main_start + 0x00154130;
_ZN6Entity12makeFlySoundEv = __main_start + 0x00154138;
_ZN6Entity9playSoundEPK10SoundEventff = __main_start + 0x001541d4;
_ZN6Entity8isSilentEv = __main_start + 0x00154290;
_ZN6Entity9setSilentEb = __main_start + 0x001542a4;
_ZN6Entity11isNoGravityEv = __main_start + 0x001542c4;
_ZN6Entity12setNoGravityEb = __main_start + 0x001542d8;
_ZN6Entity13makeStepSoundEv = __main_start + 0x001542f8;
_ZN6Entity15checkFallDamageEdbP5BlockRK8BlockPos = __main_start + 0x00154300;
_ZN6Entity13getCollideBoxEv = __main_start + 0x001543c4;
_ZN6Entity4burnEi = __main_start + 0x001543cc;
_ZN6Entity15causeFallDamageEff = __main_start + 0x00154400;
_ZN6Entity9isInWaterEv = __main_start + 0x0015451c;
_ZN6Entity11isOverWaterEv = __main_start + 0x00154524;
_ZN6Entity18updateInWaterStateEv = __main_start + 0x001545c0;
_ZN6Entity19doWaterSplashEffectEv = __main_start + 0x00154744;
_ZN6Entity20updateSprintingStateEv = __main_start + 0x00154b04;
_ZN6Entity22doSprintParticleEffectEv = __main_start + 0x00154b5c;
_ZN6Entity13isUnderLiquidEP8Material = __main_start + 0x00154cdc;
_ZN6Entity13getLightColorEv = __main_start + 0x00154f40;
_ZN6Entity13getBrightnessEv = __main_start + 0x00155004;
_ZN6Entity8setLevelEP5Level = __main_start + 0x001550b0;
_ZN6Entity6moveToEdddff = __main_start + 0x001552e0;
_ZN6Entity11playerTouchESt10shared_ptrI6PlayerE = __main_start + 0x0015552c;
_ZN6Entity4pushESt10shared_ptrIS_E = __main_start + 0x00155530;
_ZN6Entity4pushEddd = __main_start + 0x001556b4;
_ZN6Entity8markHurtEv = __main_start + 0x001556e8;
_ZN6Entity4hurtEP12DamageSourcef = __main_start + 0x001556f4;
_ZN6Entity13getViewVectorEf = __main_start + 0x00155744;
_ZN6Entity19calculateViewVectorEff = __main_start + 0x00155780;
_ZN6Entity10isPickableEv = __main_start + 0x00155e10;
_ZN6Entity10isPushableEv = __main_start + 0x00155e18;
_ZN6Entity14awardKillScoreESt10shared_ptrIS_EiP12DamageSource = __main_start + 0x00155e20;
_ZN6Entity12shouldRenderEddd = __main_start + 0x00155e24;
_ZN6Entity12shouldRenderEd = __main_start + 0x00155e58;
_ZN6Entity25shouldRenderAtSqrDistanceEd = __main_start + 0x00155e64;
_ZN6Entity4saveEP11CompoundTag = __main_start + 0x00156880;
_ZN6Entity13getSharedFlagEi = __main_start + 0x00156bb0;
_ZN6Entity4loadEP11CompoundTag = __main_start + 0x00156bf4;
_ZN6Entity12setAirSupplyEi = __main_start + 0x00157598;
_ZN6Entity25repositionEntityAfterLoadEv = __main_start + 0x001575b8;
_ZN6Entity25getAdditionContructionTagEv = __main_start + 0x001575d4;
_ZN6Entity15spawnAtLocationEP4Itemi = __main_start + 0x001575dc;
_ZN6Entity15spawnAtLocationEP4Itemif = __main_start + 0x001575ec;
_ZN6Entity15spawnAtLocationE12not_null_ptrI12ItemInstanceEf = __main_start + 0x00157684;
_ZNK12ItemInstance7isEmptyEv = __main_start + 0x00157794;
_ZN6Entity7isAliveEv = __main_start + 0x00157804;
_ZN6Entity8isInWallEv = __main_start + 0x00157814;
_ZN6Entity8interactERKSt10shared_ptrI6PlayerEN15InteractionHand16EInteractionHandE = __main_start + 0x00157a20;
_ZN6Entity20getCollideAgainstBoxESt10shared_ptrIS_E = __main_start + 0x00157a28;
_ZN6Entity8rideTickEv = __main_start + 0x00157a30;
_ZN6Entity13positionRiderERKSt10shared_ptrIS_E = __main_start + 0x00157c3c;
_ZN6Entity17onPassengerTurnedESt10shared_ptrIS_E = __main_start + 0x00157d24;
_ZN6Entity15getRidingHeightEv = __main_start + 0x00157d28;
_ZN6Entity13getRideHeightEv = __main_start + 0x00157d30;
_ZN6Entity11startRidingESt10shared_ptrIS_E = __main_start + 0x00157d44;
_ZN6Entity11startRidingESt10shared_ptrIS_Eb = __main_start + 0x00157da8;
_ZN6Entity18GetInteractTooltipERK23EntityTooltipDataHolder = __main_start + 0x00157fa4;
_ZN4Item5getIdEP4Item = __main_start + 0x001580e8;
_ZNK12ItemInstance7getItemEv = __main_start + 0x00158108;
_ZN12ItemInstance18hasCustomHoverNameEv = __main_start + 0x00158128;
_ZN12ItemInstance12getHoverNameEv = __main_start + 0x001581e0;
_ZN6Entity13GetHitTooltipERK23EntityTooltipDataHolder = __main_start + 0x00158470;
_ZN6Entity15HideUseTooltipsEv = __main_start + 0x00158488;
_ZN6Entity7canRideESt10shared_ptrIS_E = __main_start + 0x00158490;
_ZN6Entity15ejectPassengersEv = __main_start + 0x001584a0;
_ZN6Entity10stopRidingEv = __main_start + 0x00158544;
_ZN6Entity24stopRidingBeforeTeleportEv = __main_start + 0x001587d4;
_ZN6Entity12addPassengerESt10shared_ptrIS_E = __main_start + 0x0015882c;
_ZN6Entity15removePassengerESt10shared_ptrIS_E = __main_start + 0x00158ab8;
_ZN6Entity15canAddPassengerESt10shared_ptrIS_E = __main_start + 0x00158d3c;
_ZN6Entity6lerpToEdddffib = __main_start + 0x00158d64;
_ZN6Entity13getPickRadiusEv = __main_start + 0x00158da8;
_ZN6Entity12getLookAngleEv = __main_start + 0x00158db0;
_ZN6Entity17getRotationVectorEv = __main_start + 0x00158db8;
_ZN6Entity10getForwardEv = __main_start + 0x00158dc0;
_ZN6Entity18handleInsidePortalERK8BlockPos = __main_start + 0x00158ddc;
_ZN6Entity25getDimensionChangingDelayEv = __main_start + 0x00159004;
_ZN6Entity10lerpMotionEddd = __main_start + 0x0015900c;
_ZN6Entity17handleEntityEventEhi = __main_start + 0x0015901c;
_ZN4Item4byIdEi = __main_start + 0x00159088;
_ZN6Entity11animateHurtEv = __main_start + 0x001590a0;
_ZN6Entity12getHandSlotsEv = __main_start + 0x001590a4;
_ZN6Entity13getArmorSlotsEv = __main_start + 0x001590ac;
_ZN6Entity11getAllSlotsEv = __main_start + 0x001590b4;
_ZN6Entity11setItemSlotEPK13EquipmentSlot12not_null_ptrI12ItemInstanceE = __main_start + 0x00159234;
_ZN6Entity8isOnFireEv = __main_start + 0x00159238;
_ZN6Entity11isPassengerEv = __main_start + 0x00159294;
_ZN6Entity9isVehicleEv = __main_start + 0x001592a4;
_ZN6Entity10isSneakingEv = __main_start + 0x001592cc;
_ZN6Entity11setSneakingEb = __main_start + 0x001592d4;
_ZN6Entity6isIdleEv = __main_start + 0x001592e0;
_ZN6Entity9setIsIdleEb = __main_start + 0x001592e8;
_ZN6Entity11isSprintingEv = __main_start + 0x001592f4;
_ZN6Entity12setSprintingEb = __main_start + 0x001592fc;
_ZN6Entity9isGlowingEv = __main_start + 0x00159308;
_ZN6Entity10setGlowingEb = __main_start + 0x00159334;
_ZN6Entity11isInvisibleEv = __main_start + 0x00159354;
_ZN6Entity13isInvisibleToESt10shared_ptrI6PlayerE = __main_start + 0x0015935c;
_ZN6Entity7getTeamEv = __main_start + 0x001593a8;
_ZN6Entity10isAlliedToESt10shared_ptrIS_E = __main_start + 0x00159450;
_ZN6Entity10isAlliedToEP4Team = __main_start + 0x00159494;
_ZN6Entity12setInvisibleEb = __main_start + 0x001594ec;
_ZN6Entity18ShouldRenderShadowEv = __main_start + 0x001594f8;
_ZN6Entity6canFlyEv = __main_start + 0x00159500;
_ZN6Entity6getPosEf = __main_start + 0x00159508;
_ZN6Entity12getAttachPosEN6Entity15EEntityLocationEf = __main_start + 0x00159558;
_ZN6Entity10isWeakenedEv = __main_start + 0x00159628;
_ZN6Entity11setWeakenedEb = __main_start + 0x00159630;
_ZN6Entity10thunderHitEPK13LightningBolt = __main_start + 0x0015963c;
_ZN6Entity6killedESt10shared_ptrI12LivingEntityE = __main_start + 0x001596a0;
_ZN6Entity12checkInBlockEddd = __main_start + 0x001596a4;
_ZN6Entity14makeStuckInWebEv = __main_start + 0x001599f0;
_ZN6Entity7getNameEv = __main_start + 0x00159a10;
_ZN6Entity16isInvulnerableToEP12DamageSource = __main_start + 0x00159a80;
_ZN6Entity14isInvulnerableEv = __main_start + 0x00159ae8;
_ZN6Entity15setInvulnerableEb = __main_start + 0x00159af0;
_ZN6Entity17spawnEatParticlesERK12ItemInstancei = __main_start + 0x00159afc;
_ZN6Entity14getSubEntitiesEv = __main_start + 0x00159b00;
_ZN6Entity2isESt10shared_ptrIS_E = __main_start + 0x00159b08;
_ZN6Entity11getYHeadRotEv = __main_start + 0x00159b58;
_ZN6Entity11setYHeadRotEf = __main_start + 0x00159b60;
_ZN6Entity11setYBodyRotEf = __main_start + 0x00159b64;
_ZN6Entity12isAttackableEv = __main_start + 0x00159b68;
_ZN6Entity21skipAttackInteractionESt10shared_ptrIS_E = __main_start + 0x00159b70;
_ZN6Entity12copyPositionESt10shared_ptrIS_E = __main_start + 0x00159b78;
_ZN6Entity15changeDimensionEi = __main_start + 0x00159c8c;
_ZN6Entity19canChangeDimensionsEv = __main_start + 0x0015a308;
_ZN6Entity27getBlockExplosionResistanceEP9ExplosionP5LevelRK8BlockPos = __main_start + 0x0015a310;
_ZN6Entity18shouldBlockExplodeEP9ExplosionP5LevelRK8BlockPosf = __main_start + 0x0015a390;
_ZN6Entity18getMaxFallDistanceEv = __main_start + 0x0015a398;
_ZN6Entity22getPortalEntranceBlockEv = __main_start + 0x0015a3a0;
_ZN6Entity23getPortalEntranceOffsetEv = __main_start + 0x0015a3b4;
_ZN6Entity25getPortalEntranceForwardsEv = __main_start + 0x0015a3bc;
_ZN6Entity23isIgnoringBlockTriggersEv = __main_start + 0x0015a3c4;
_ZN6Entity20displayFireAnimationEv = __main_start + 0x0015a3cc;
_ZN6Entity7setUUIDERKNSt7__cxx1112basic_stringIwSt11char_traitsIwESaIwEEE = __main_start + 0x0015a3d8;
_ZN6Entity7getUUIDEv = __main_start + 0x0015a408;
_ZN6Entity13getStringUUIDEv = __main_start + 0x0015a414;
_ZN6Entity15isPushedByWaterEv = __main_start + 0x0015a420;
_ZN6Entity12getViewScaleEv = __main_start + 0x0015a428;
_ZN6Entity12setViewScaleEd = __main_start + 0x0015a438;
_ZN6Entity14getNetworkNameEv = __main_start + 0x0015a448;
_ZN6Entity14getDisplayNameEv = __main_start + 0x0015a454;
_ZN6Entity13setCustomNameERKNSt7__cxx1112basic_stringIwSt11char_traitsIwESaIwEEES7_b = __main_start + 0x0015a460;
_ZN6Entity13getCustomNameEv = __main_start + 0x0015a590;
_ZN6Entity13hasCustomNameEv = __main_start + 0x0015a5e0;
_ZN6Entity20setCustomNameVisibleEb = __main_start + 0x0015a6fc;
_ZN6Entity19isCustomNameVisibleEv = __main_start + 0x0015a71c;
_ZN6Entity10teleportToEddd = __main_start + 0x0015a730;
_ZN6Entity14shouldShowNameEv = __main_start + 0x0015a7a8;
_ZN6Entity19onSyncedDataUpdatedEPK23EntityDataAccessor_Base = __main_start + 0x0015a7b4;
_ZN6Entity12getDirectionEv = __main_start + 0x0015a7b8;
_ZN6Entity18getMotionDirectionEv = __main_start + 0x0015a7f4;
_ZN6Entity17broadcastToPlayerESt10shared_ptrI12ServerPlayerE = __main_start + 0x0015a800;
_ZN6Entity14getBoundingBoxEv = __main_start + 0x0015a808;
_ZN6Entity24getBoundingBoxForCullingEv = __main_start + 0x0015a810;
_ZN6Entity14setBoundingBoxEP4AABB = __main_start + 0x0015a81c;
_ZN6Entity12getEyeHeightEv = __main_start + 0x0015a824;
_ZN6Entity20isOutsideWorldBorderEv = __main_start + 0x0015a838;
_ZN6Entity21setOutsideWorldBorderEb = __main_start + 0x0015a840;
_ZN6Entity7setSlotEiRK12not_null_ptrI12ItemInstanceE = __main_start + 0x0015a84c;
vtbl_71010534A0_func_2 = __main_start + 0x0015a854;
vtbl_71010534A0_func_3 = __main_start + 0x0015a858;
vtbl_71010534A0_func_5 = __main_start + 0x0015a860;
vtbl_71010534A0_func_6 = __main_start + 0x0015a898;
vtbl_71010534A0_func_7 = __main_start + 0x0015a8a4;
vtbl_71010534A0_func_8 = __main_start + 0x0015a8ac;
vtbl_71010534A0_func_9 = __main_start + 0x0015a8bc;
vtbl_71010534A0_func_10 = __main_start + 0x0015a8c4;
vtbl_71010534A0_func_11 = __main_start + 0x0015a97c;
_ZN6Entity10interactAtERKSt10shared_ptrI6PlayerEP4Vec3N15InteractionHand16EInteractionHandE = __main_start + 0x0015a98c;
_ZN6Entity15ignoreExplosionEv = __main_start + 0x0015a994;
_ZN6Entity22doEnchantDamageEffectsESt10shared_ptrI12LivingEntityESt10shared_ptrI6EntityE = __main_start + 0x0015a99c;
_ZN6Entity17startSeenByPlayerESt10shared_ptrI12ServerPlayerE = __main_start + 0x0015aa54;
_ZN6Entity16stopSeenByPlayerESt10shared_ptrI12ServerPlayerE = __main_start + 0x0015aa58;
_ZN6Entity6rotateEP8Rotation = __main_start + 0x0015aa5c;
_ZN6Entity6mirrorEP6Mirror = __main_start + 0x0015aad4;
_ZN6Entity23getControllingPassengerEv = __main_start + 0x0015ab30;
_ZN6Entity15onlyOpCanSetNbtEv = __main_start + 0x0015ab78;
_ZN6Entity27checkAndResetTeleportedFlagEv = __main_start + 0x0015ab80;
_ZN6Entity13getPassengersEv = __main_start + 0x0015ab90;
_ZN6Entity12hasPassengerESt10shared_ptrIS_E = __main_start + 0x0015ab98;
_ZN6Entity12hasPassengerE11eINSTANCEOF = __main_start + 0x0015ac28;
_ZN6Entity22fillIndirectPassengersE11eINSTANCEOFPSt3setISt10shared_ptrIS_ESt4lessIS3_ESaIS3_EE = __main_start + 0x0015acb8;
_ZN6Entity21getIndirectPassengersE11eINSTANCEOF = __main_start + 0x0015ad64;
_ZN6Entity21getIndirectPassengersEv = __main_start + 0x0015adbc;
_ZN6Entity20hasIndirectPassengerESt10shared_ptrIS_E = __main_start + 0x0015ae10;
_ZN6Entity20hasIndirectPassengerE11eINSTANCEOF = __main_start + 0x0015aee8;
_ZN6Entity27isControlledByLocalInstanceEv = __main_start + 0x0015af78;
_ZN6Entity10getVehicleEv = __main_start + 0x0015b00c;
_ZN6Entity21getPistonPushReactionEv = __main_start + 0x0015b028;
_ZN6Entity14getRootVehicleEv = __main_start + 0x0015b030;
_ZN6Entity24isPassengerOfSameVehicleESt10shared_ptrIS_E = __main_start + 0x0015b0bc;
_ZN6Entity14getSoundSourceEv = __main_start + 0x0015b128;
_ZN6Entity10isCreativeEv = __main_start + 0x0015b130;
_ZN6Entity18isDespawnProtectedEv = __main_start + 0x0015b144;
_ZN6Entity19setDespawnProtectedEv = __main_start + 0x0015b14c;
_ZN6Entity11couldWanderEv = __main_start + 0x0015b150;
_ZN6Entity18canCreateParticlesEv = __main_start + 0x0015b158;
_ZN6Entity15stopCurrentLerpEv = __main_start + 0x0015b160;
_ZN6Entity18getFireImmuneTicksEv = __main_start + 0x0015b1e0;
_ZN13EquipmentSlot10staticCtorEv = __main_start + 0x00164340;
_ZN9GameRules10getBooleanEi = __main_start + 0x00166888;
_ZN6Random6randomEv = __main_start + 0x001672a0;
_ZN18FallingBlockEntity10staticCtorEv = __main_start + 0x0016ade8;
_ZNK9HitResult11getBlockPosEv = __main_start + 0x0016b984;
_ZN4Item7byBlockEP5Block = __main_start + 0x0016c878;
_ZN4FileC1Ev = __main_start + 0x0016e6dc;
_ZN4FileC1ERKS_RKNSt3__112basic_stringIwNS2_11char_traitsIwEENS2_9allocatorIwEEEE = __main_start + 0x0016e6f0;
_ZNK4File7getPathEv = __main_start + 0x0016e850;
_ZN4FileC1ERKNSt3__112basic_stringIwNS0_11char_traitsIwEENS0_9allocatorIwEEEE = __main_start + 0x0016e860;
_ZN4File7_deleteEv = __main_start + 0x0016e940;
_ZNK4File5mkdirEv = __main_start + 0x0016e998;
_ZNK4File6existsEv = __main_start + 0x0016e9e8;
_Z11isDirectoryRKNSt3__112basic_stringIwNS_11char_traitsIwEENS_9allocatorIwEEEE = __main_start + 0x0016ea34;
_ZN4File8renameToE4File = __main_start + 0x0016ea94;
_ZNK4File9listFilesEv = __main_start + 0x0016eb60;
_ZN4File6lengthEv = __main_start + 0x0016ec84;
_ZNK4File7getNameEv = __main_start + 0x0016ed14;
_ZNK4File3extEv = __main_start + 0x0016ed7c;
_ZN15FileInputStreamC1ERK4File = __main_start + 0x00170718;
_ZN15FileInputStreamD2Ev = __main_start + 0x001707fc;
_ZN15FileInputStream4readE15arrayWithLengthIhE = __main_start + 0x001708dc;
_ZN15FileInputStream8filesizeEv = __main_start + 0x00170a28;
_ZN16FileOutputStreamC1ERK4File = __main_start + 0x00170a44;
_ZN16FileOutputStreamD2Ev = __main_start + 0x00170ae4;
_ZN16FileOutputStream5closeEv = __main_start + 0x00170bf4;
_ZN12ItemInstance8getCountEv = __main_start + 0x00176a18;
_ZN15FireworksRecipe22CreateNewThreadStorageEv = __main_start + 0x00176cac;
_ZN21FireworksRocketEntity10staticCtorEv = __main_start + 0x00177988;
_ZN11FishingHook10staticCtorEv = __main_start + 0x00179e38;
_ZN14FlexiblePacket4readEP15DataInputStream = __main_start + 0x001825cc;
_ZN14FlexiblePacket5writeEP16DataOutputStream = __main_start + 0x0018284c;
_ZN14FlexiblePacket16getEstimatedSizeEv = __main_start + 0x001829ec;
_ZN8FloatTag5writeEP10DataOutput = __main_start + 0x0018344c;
_ZN8FloatTag4loadEP9DataInputi = __main_start + 0x00183460;
_ZN8FloatTag5getIdEv = __main_start + 0x00183490;
_ZN8FloatTag8toStringEv = __main_start + 0x00183498;
_ZN8FloatTag4copyEv = __main_start + 0x001834f4;
_ZN8FloatTag6equalsEP3Tag = __main_start + 0x00183528;
_ZN8FloatTag9getAsLongEv = __main_start + 0x00183568;
_ZN8FloatTag8getAsIntEv = __main_start + 0x00183574;
_ZN8FloatTag10getAsShortEv = __main_start + 0x0018357c;
_ZN8FloatTag9getAsByteEv = __main_start + 0x00183594;
_ZN8FloatTag11getAsDoubleEv = __main_start + 0x001835ac;
_ZN8FloatTag10getAsFloatEv = __main_start + 0x001835b8;
_ZN12FoliageColor4initE15arrayWithLengthIiE = __main_start + 0x00188638;
_ZN10FrameTimerC1Ev = __main_start + 0x0018c324;
_ZN14FurnaceRecipes10staticCtorEv = __main_start + 0x00191640;
_ZN17GameCommandPacketD2Ev = __main_start + 0x00194050;
_ZN17GameCommandPacketD0Ev = __main_start + 0x00194094;
_ZN17GameCommandPacket4readEP15DataInputStream = __main_start + 0x001940b8;
_ZN17GameCommandPacket5writeEP16DataOutputStream = __main_start + 0x00194168;
_ZN17GameCommandPacket6handleEP14PacketListener = __main_start + 0x001941d4;
_ZN17GameCommandPacket16getEstimatedSizeEv = __main_start + 0x00194224;
_ZN14GameModePacket4readEP15DataInputStream = __main_start + 0x001946fc;
_ZN14GameModePacket5writeEP16DataOutputStream = __main_start + 0x0019473c;
_ZN14GameModePacket6handleEP14PacketListener = __main_start + 0x00194778;
_ZN14GameModePacket16getEstimatedSizeEv = __main_start + 0x001947d8;
_ZN8GameType10staticCtorEv = __main_start + 0x0019642c;
_ZNK8GameType5getIdEv = __main_start + 0x00196848;
_ZN13GetInfoPacket4readEP15DataInputStream = __main_start + 0x001983dc;
_ZN13GetInfoPacket5writeEP16DataOutputStream = __main_start + 0x001983e0;
_ZN13GetInfoPacket6handleEP14PacketListener = __main_start + 0x001983e4;
_ZN13GetInfoPacket16getEstimatedSizeEv = __main_start + 0x00198444;
_ZN5Ghast10staticCtorEv = __main_start + 0x0019844c;
_ZN10GrassColor4initE15arrayWithLengthIiE = __main_start + 0x0019bdc0;
_ZN8Guardian10staticCtorEv = __main_start + 0x0019d700;
_ZN5Horse10staticCtorEv = __main_start + 0x001a6ca4;
_ZN11IntArrayTagD1Ev = __main_start + 0x001b0054;
_ZN11IntArrayTagD0Ev = __main_start + 0x001b0090;
_ZN11IntArrayTag5writeEP10DataOutput = __main_start + 0x001b00b4;
_ZN11IntArrayTag4loadEP9DataInputi = __main_start + 0x001b0138;
_ZN11IntArrayTag5getIdEv = __main_start + 0x001b01ec;
_ZN11IntArrayTag8toStringEv = __main_start + 0x001b01f4;
_ZN11IntArrayTag6equalsEP3Tag = __main_start + 0x001b024c;
_ZN11IntArrayTag4copyEv = __main_start + 0x001b02b4;
_ZN9IntBufferC1EjPi = __main_start + 0x001b0374;
_ZN9IntBufferD2Ev = __main_start + 0x001b03b4;
_ZN9IntBufferD0Ev = __main_start + 0x001b03f8;
_ZN9IntBuffer4flipEv = __main_start + 0x001b041c;
_ZN8IntCache22CreateNewThreadStorageEv = __main_start + 0x001b0434;
_ZN8IntCache5ResetEv = __main_start + 0x001b098c;
_ZN6IntTagC1Ev = __main_start + 0x001b11e4;
_ZN6IntTagC1Ei = __main_start + 0x001b1214;
_ZN6IntTag5writeEP10DataOutput = __main_start + 0x001b124c;
_ZN6IntTag4loadEP9DataInputi = __main_start + 0x001b1264;
_ZN6IntTag5getIdEv = __main_start + 0x001b1294;
_ZN6IntTag8toStringEv = __main_start + 0x001b129c;
_ZN6IntTag4copyEv = __main_start + 0x001b12f4;
_ZN6IntTag6equalsEP3Tag = __main_start + 0x001b1328;
_ZN6IntTag9getAsLongEv = __main_start + 0x001b1368;
_ZN6IntTag8getAsIntEv = __main_start + 0x001b1370;
_ZN6IntTag10getAsShortEv = __main_start + 0x001b1378;
_ZN6IntTag9getAsByteEv = __main_start + 0x001b1380;
_ZN6IntTag11getAsDoubleEv = __main_start + 0x001b1388;
_ZN6IntTag10getAsFloatEv = __main_start + 0x001b1398;
_ZN9Inventory9swapPaintEi = __main_start + 0x001b1ffc;
_ZN13InventoryMenu10staticCtorEv = __main_start + 0x001b4e1c;
_ZN4Item10staticCtorEv = __main_start + 0x001b67e4;
_ZN4Item13registerBlockEP5Block = __main_start + 0x001c12b0;
_ZN4Item13registerBlockEP5BlockP4Item = __main_start + 0x001c12e8;
_ZN4Item22StoneBlockNameResolverE12not_null_ptrI12ItemInstanceE = __main_start + 0x001c1370;
_ZN4Item22StoneBlockDescResolverE12not_null_ptrI12ItemInstanceE = __main_start + 0x001c138c;
_ZN13ItemPotionFix10staticCtorEv = __main_start + 0x001c5298;
_ZN10ItemEntity10staticCtorEv = __main_start + 0x001c6538;
_ZN9ItemFrame10staticCtorEv = __main_start + 0x001c7ec8;
_ZN12ItemInstanceC1EP4Itemii = __main_start + 0x001c997c;
_ZN12ItemInstanceD2Ev = __main_start + 0x001c9b8c;
_ZN11JumpControlC1Ev = __main_start + 0x001cebf4;
_ZN11JungleBiome10staticCtorEv = __main_start + 0x001cec40;
_ZN16KickPlayerPacket6handleEP14PacketListener = __main_start + 0x001cf1f8;
_ZN16KickPlayerPacket4readEP15DataInputStream = __main_start + 0x001cf258;
_ZN16KickPlayerPacket5writeEP16DataOutputStream = __main_start + 0x001cf288;
_ZN16KickPlayerPacket16getEstimatedSizeEv = __main_start + 0x001cf2a0;
_ZN13GetInfoPacketD2Ev = __main_start + 0x001cf4ec;
_ZN13GetInfoPacketD0Ev = __main_start + 0x001cf514;
_ZN13GetInfoPacket11getPacketIdEv = __main_start + 0x001cf538;
_ZN6EntityD2Ev = __main_start + 0x001cffcc;
_ZN14FlexiblePacketD0Ev = __main_start + 0x001d0598;
_ZN8FloatTagD0Ev = __main_start + 0x001d0668;
_ZN17GameCommandPacket11getPacketIdEv = __main_start + 0x001d0d0c;
_ZN14GameModePacketD2Ev = __main_start + 0x001d0d5c;
_ZN14GameModePacketD0Ev = __main_start + 0x001d0d84;
_ZN14GameModePacket11getPacketIdEv = __main_start + 0x001d0da8;
_ZN6IntTagD0Ev = __main_start + 0x001d1cd4;
_ZN16KickPlayerPacketD2Ev = __main_start + 0x001d1f78;
_ZN16KickPlayerPacketD0Ev = __main_start + 0x001d1fa0;
_ZN16KickPlayerPacket11getPacketIdEv = __main_start + 0x001d1fc4;
_ZN3Mth3sinEf = __main_start + 0x001f3028;
_ZN3Mth3cosEf = __main_start + 0x001f307c;
_ZN3Mth5floorEd = __main_start + 0x001f30dc;
_ZN5Level12getGameRulesEv = __main_start + 0x001f38b4;
_ZN5Level11addParticleEPK12ParticleTypedddddd15arrayWithLengthIiE = __main_start + 0x001f75b0;
_ZN5Level13getDifficultyEv = __main_start + 0x001f7e58;
_ZN5Level22clampWithinLevelBoundsERdRdd = __main_start + 0x001f86f0;
_ZN5Level12getLevelDataEv = __main_start + 0x001f8824;
_ZN3Mth5clampEddd = __main_start + 0x001f882c;
_ZN5Level19isWithinLevelBoundsEii = __main_start + 0x001f8840;
_ZN5Level19enableLightingCacheEv = __main_start + 0x001f8984;
_ZN5Level14setBlocksDirtyERK8BlockPosRK8BlockPos = __main_start + 0x001f8f7c;
_ZN5Level4initEv = __main_start + 0x001f90b0;
_ZN5LevelC2ESt10shared_ptrI12LevelStorageEP9LevelDataP9Dimensionb = __main_start + 0x001f9204;
_ZN5LevelD2Ev = __main_start + 0x001f936c;
_ZN5LevelD0Ev = __main_start + 0x001f9578;
_ZN5Level13postConstructEv = __main_start + 0x001f959c;
_ZN5Level8getBiomeERK8BlockPos = __main_start + 0x001f95a0;
_ZN5Level10hasChunkAtERK8BlockPos = __main_start + 0x001f9624;
_ZN5Level10getChunkAtERK8BlockPos = __main_start + 0x001f962c;
_ZN5Level14getBiomeSourceEv = __main_start + 0x001f9674;
_ZN5Level15initializeLevelEP13LevelSettings = __main_start + 0x001f967c;
_ZN5Level9getServerEv = __main_start + 0x001f9690;
_ZN5Level13validateSpawnEv = __main_start + 0x001f9698;
_ZN5Level11setSpawnPosERK8BlockPos = __main_start + 0x001f96dc;
_ZN5Level11getSeaLevelEv = __main_start + 0x001f97e4;
_ZN5Level15isInWorldBoundsERK8BlockPos = __main_start + 0x001f97ec;
_ZN5Level15isInWorldBoundsEiii = __main_start + 0x001f980c;
_ZN5Level20isOutsideBuildHeightERK8BlockPos = __main_start + 0x001f9818;
_ZN5Level12isEmptyBlockERK8BlockPos = __main_start + 0x001f9858;
_ZN5Level8getChunkEii = __main_start + 0x001f9be0;
_ZN5Level18isChunkGeneratedAtEii = __main_start + 0x001f9c14;
_ZN5Level8setBlockERK8BlockPosPK10BlockStateib = __main_start + 0x001f9c7c;
_ZN5Level10checkLightERK8BlockPosbb = __main_start + 0x001f9ec4;
_ZN10LevelChunk7isReadyEv = __main_start + 0x001f9f74;
_ZN5Level12blockUpdatedERK8BlockPosP5Blockb = __main_start + 0x001f9fa4;
_ZN5Level23updateObservingBlocksAtERK8BlockPosP5Block = __main_start + 0x001f9fac;
_ZN5Level7setDataERK8BlockPosiib = __main_start + 0x001fa0b8;
_ZN5Level7setDataEiiiiib = __main_start + 0x001fa148;
_ZN10LevelChunk10getBlockIdEiii = __main_start + 0x001fa52c;
_ZN5Level11removeBlockERK8BlockPos = __main_start + 0x001fa57c;
_ZN5Level12destroyBlockERK8BlockPosb = __main_start + 0x001fa5d8;
_ZN5Level10levelEventEiRK8BlockPosi = __main_start + 0x001fa6dc;
_ZN5Level17setBlockAndUpdateERK8BlockPosPK10BlockState = __main_start + 0x001fa720;
_ZN5Level16sendBlockUpdatedERK8BlockPosPK10BlockStatePK10BlockStateib = __main_start + 0x001fa734;
_ZN5Level17updateNeighborsAtERK8BlockPosP5Blockb = __main_start + 0x001fa7b8;
_ZN5Level18lightColumnChangedEiiii = __main_start + 0x001fa8dc;
_ZN5Level10checkLightEN10LightLayer7varietyERK8BlockPosbb = __main_start + 0x001faa2c;
_ZN5Level23observedNeighborChangedERK8BlockPosP5BlockRK8BlockPos = __main_start + 0x001fb70c;
_ZN5Level15neighborChangedERK8BlockPosP5BlockRK8BlockPos = __main_start + 0x001fb7a8;
_ZN5Level33updateNeighborsAtExceptFromFacingERK8BlockPosP5BlockPK9Direction = __main_start + 0x001fb81c;
_ZN5Level19isBlockToBeTickedAtERK8BlockPosP5Block = __main_start + 0x001fba3c;
_ZN5Level9canSeeSkyERK8BlockPos = __main_start + 0x001fba44;
_ZN5Level23canSeeSkyFromBelowWaterERK8BlockPos = __main_start + 0x001fba70;
_ZN5Level16getRawBrightnessERK8BlockPos = __main_start + 0x001fbc38;
_ZN5Level16getRawBrightnessERK8BlockPosb = __main_start + 0x001fbc40;
_ZN5Level15getHeightmapPosERK8BlockPos = __main_start + 0x001fbe34;
_ZN5Level18getHeightmapHeightEii = __main_start + 0x001fbebc;
_ZN5Level12getHeightmapEii = __main_start + 0x001fbf68;
_ZN5Level22getBrightnessPropagateEN10LightLayer7varietyERK8BlockPos = __main_start + 0x001fc00c;
_ZN5Level13getBrightnessEN10LightLayer7varietyERK8BlockPos = __main_start + 0x001fc228;
_ZN5Level24getNeighbourBrightnessesEPiN10LightLayer7varietyEiii = __main_start + 0x001fc368;
_ZN5Level13getLightColorERK8BlockPosii = __main_start + 0x001fc5d0;
_ZN5Level13getBrightnessERK8BlockPosi = __main_start + 0x001fc62c;
_ZN5Level13getBrightnessERK8BlockPos = __main_start + 0x001fc664;
_ZN5Level13getBlockStateERK8BlockPos = __main_start + 0x001fc6a8;
_ZN5Level10getBlockIdEiii = __main_start + 0x001fc700;
_ZN5Level8getBlockERK8BlockPos = __main_start + 0x001fc768;
_ZN5Level12getBlockDataEiii = __main_start + 0x001fc7d4;
_ZN5Level9playSoundESt10shared_ptrI6PlayerERK8BlockPosPK10SoundEventN11SoundSource12ESoundSourceEfff = __main_start + 0x001fcff4;
_ZN5Level9playSoundESt10shared_ptrI6PlayerEdddPK10SoundEventN11SoundSource12ESoundSourceEfff = __main_start + 0x001fd0d8;
_ZN5Level14playLocalSoundEdddPK10SoundEventN11SoundSource12ESoundSourceEffbf = __main_start + 0x001fd1bc;
_ZN5Level15addGlobalEntityESt10shared_ptrI6EntityE = __main_start + 0x001fd468;
_ZN5Level9addEntityESt10shared_ptrI6EntityE = __main_start + 0x001fd4c4;
_ZN5Level11entityAddedESt10shared_ptrI6EntityE = __main_start + 0x001fd744;
_ZN5Level13entityRemovedESt10shared_ptrI6EntityE = __main_start + 0x001fd7c8;
_ZN5Level13playerRemovedESt10shared_ptrI6EntityE = __main_start + 0x001fd84c;
_ZN5Level12removeEntityESt10shared_ptrI6EntityE = __main_start + 0x001fd8d0;
_ZN5Level25internalGetCollisionAABBsESt10shared_ptrI6EntityEPK4AABBbPSt6vectorIP4AABBSt9allocatorIP4AABBEEbbb = __main_start + 0x001fde18;
_ZN3Mth5clampEfff = __main_start + 0x001febd4;
_ZN5Level12getSkyDarkenEf = __main_start + 0x001fec34;
_ZN5Level17getMoonBrightnessEv = __main_start + 0x001fef88;
_ZN5Level15hasTickNextTickERK8BlockPosP5Block = __main_start + 0x001ff74c;
_ZN5Level17addToTickNextTickERK8BlockPosP5Blocki = __main_start + 0x001ff754;
_ZN5Level17addToTickNextTickERK8BlockPosP5Blockii = __main_start + 0x001ff758;
_ZN5Level17forceAddBlockTickERK8BlockPosP5Blockii = __main_start + 0x001ff75c;
_ZN5Level12tickEntitiesEv = __main_start + 0x001ff760;
_ZN5Level17tickServerPlayersEv = __main_start + 0x002005b8;
_ZN5Level4tickESt10shared_ptrI6EntityEb = __main_start + 0x00200824;
_ZN5Level10levelEventESt10shared_ptrI6PlayerEiRK8BlockPosi = __main_start + 0x00201a08;
_ZN5Level14getBlockEntityERK8BlockPos = __main_start + 0x00201aac;
_ZN5Level23getPendingBlockEntityAtERK8BlockPos = __main_start + 0x00201bec;
_ZN5Level4tickEv = __main_start + 0x00202490;
_ZN5Level11tickWeatherEb = __main_start + 0x00202520;
_ZN5Level27buildAndPrepareChunksToPollEv = __main_start + 0x00202838;
_ZN5Level20tickClientSideBlocksEiiP10LevelChunk = __main_start + 0x00202a60;
_ZN5Level10tickBlocksEv = __main_start + 0x00202a64;
_ZN5Level16tickPendingTicksEb = __main_start + 0x002036b4;
_ZN5Level17fetchTicksInChunkEP10LevelChunkb = __main_start + 0x002036bc;
_ZN5Level16fetchTicksInAreaEP11BoundingBoxb = __main_start + 0x002036c4;
_ZN5Level9getEntityEi = __main_start + 0x00203e7c;
_ZN5Level11addEntitiesEPSt6vectorISt10shared_ptrI6EntityESt9allocatorISt10shared_ptrI6EntityEEE = __main_start + 0x00204074;
_ZN5Level14removeEntitiesEPSt6vectorISt10shared_ptrI6EntityESt9allocatorISt10shared_ptrI6EntityEEE = __main_start + 0x00204340;
_ZN5Level15getDirectSignalERK8BlockPosPK9Direction = __main_start + 0x002044c8;
_ZN5Level16getGeneratorTypeEv = __main_start + 0x00204514;
_ZN5Level10disconnectEb = __main_start + 0x00205c18;
_ZN5Level12checkSessionEv = __main_start + 0x00205c1c;
_ZN5Level11getGameTimeEv = __main_start + 0x00205c3c;
_ZN5Level10getDayTimeEv = __main_start + 0x00205c4c;
_ZN5Level17getSharedSpawnPosEv = __main_start + 0x00205d6c;
_ZN5Level14getWorldBorderEv = __main_start + 0x00205e5c;
_ZN5Level11mayInteractESt10shared_ptrI6PlayerERK8BlockPosP5Block = __main_start + 0x0020610c;
_ZN5Level20broadcastEntityEventESt10shared_ptrI6EntityEji = __main_start + 0x00206114;
_ZN5Level10blockEventERK8BlockPosP5Blockii = __main_start + 0x00206120;
_ZN5Level24updateSleepingPlayerListEv = __main_start + 0x0020617c;
_ZN5Level17getMaxBuildHeightEv = __main_start + 0x0020645c;
_ZN5Level10isAllEmptyEv = __main_start + 0x00206500;
_ZN5Level15createFireworksEddddddP11CompoundTag = __main_start + 0x0020656c;
_ZN5Level30updateNeighbourForOutputSignalERK8BlockPosP5Block = __main_start + 0x00206570;
_ZN10LevelChunk16getInhabitedTimeEv = __main_start + 0x0020676c;
_ZN5Level15getSkyFlashTimeEv = __main_start + 0x002067a4;
_ZN5Level18sendPacketToServerESt10shared_ptrI6PacketE = __main_start + 0x002069f8;
_ZN5Level21findNearestMapFeatureERKSt12basic_stringIwSt11char_traitsIwESt9allocatorIwEERK8BlockPosb = __main_start + 0x00206a04;
_ZN5Level13canCreateMoreE11eINSTANCEOFN5Level11ESPAWN_TYPEE = __main_start + 0x00206cfc;
_ZN5Level21AllPlayersAreSleepingEv = __main_start + 0x00207108;
_ZN10LevelChunk10staticCtorEv = __main_start + 0x00207498;
_ZN9LevelDataC1Ev = __main_start + 0x0020f0b4;
_ZN9LevelDataC1EP11CompoundTag = __main_start + 0x0020f198;
_ZN9LevelDataC1EP13LevelSettingsRKNSt3__112basic_stringIwNS2_11char_traitsIwEENS2_9allocatorIwEEEE = __main_start + 0x00210904;
_ZN9LevelDataC1EPS_ = __main_start + 0x00210c2c;
_ZN9LevelDataD1Ev = __main_start + 0x00210df8;
_ZN9LevelDataD0Ev = __main_start + 0x00210e6c;
_ZN9LevelData9createTagEv = __main_start + 0x00210f1c;
_ZN9LevelData9createTagEPNSt3__16vectorINS0_10shared_ptrI6PlayerEENS0_9allocatorIS4_EEEE = __main_start + 0x00210f60;
_ZN9LevelData10setTagDataEP11CompoundTag = __main_start + 0x00210f6c;
_ZN9LevelData7getSeedEv = __main_start + 0x00211bec;
_ZN9LevelData9getXSpawnEv = __main_start + 0x00211bf4;
_ZN9LevelData9getYSpawnEv = __main_start + 0x00211bfc;
_ZN9LevelData9getZSpawnEv = __main_start + 0x00211c04;
_ZN9LevelData14getXStrongholdEv = __main_start + 0x00211c0c;
_ZN9LevelData14getZStrongholdEv = __main_start + 0x00211c14;
_ZN9LevelData23getXStrongholdEndPortalEv = __main_start + 0x00211c1c;
_ZN9LevelData23getZStrongholdEndPortalEv = __main_start + 0x00211c24;
_ZN9LevelData11getGameTimeEv = __main_start + 0x00211c2c;
_ZN9LevelData10getDayTimeEv = __main_start + 0x00211c34;
_ZN9LevelData13getSizeOnDiskEv = __main_start + 0x00211c3c;
_ZN9LevelData18getLoadedPlayerTagEv = __main_start + 0x00211c44;
_ZN9LevelData7setSeedEx = __main_start + 0x00211c4c;
_ZN9LevelData9setXSpawnEi = __main_start + 0x00211c54;
_ZN9LevelData9setYSpawnEi = __main_start + 0x00211c5c;
_ZN9LevelData9setZSpawnEi = __main_start + 0x00211c64;
_ZN9LevelData16setHasStrongholdEv = __main_start + 0x00211c6c;
_ZN9LevelData16getHasStrongholdEv = __main_start + 0x00211c78;
_ZN9LevelData14setXStrongholdEi = __main_start + 0x00211c80;
_ZN9LevelData14setZStrongholdEi = __main_start + 0x00211c88;
_ZN9LevelData25setHasStrongholdEndPortalEv = __main_start + 0x00211c90;
_ZN9LevelData25getHasStrongholdEndPortalEv = __main_start + 0x00211c9c;
_ZN9LevelData23setXStrongholdEndPortalEi = __main_start + 0x00211ca4;
_ZN9LevelData23setZStrongholdEndPortalEi = __main_start + 0x00211cac;
_ZN9LevelData11setGameTimeEx = __main_start + 0x00211cb4;
_ZN9LevelData10setDayTimeEx = __main_start + 0x00211cbc;
_ZN9LevelData13setSizeOnDiskEx = __main_start + 0x00211cc4;
_ZN9LevelData18setLoadedPlayerTagEP11CompoundTag = __main_start + 0x00211ccc;
_ZN9LevelData8setSpawnERK8BlockPos = __main_start + 0x00211cd0;
_ZN9LevelData12getLevelNameEv = __main_start + 0x00211d14;
_ZN9LevelData12setLevelNameERKNSt3__112basic_stringIwNS0_11char_traitsIwEENS0_9allocatorIwEEEE = __main_start + 0x00211d20;
_ZN9LevelData10getVersionEv = __main_start + 0x00211d28;
_ZN9LevelData10setVersionEi = __main_start + 0x00211d30;
_ZN9LevelData13getLastPlayedEv = __main_start + 0x00211d38;
_ZN9LevelData19getClearWeatherTimeEv = __main_start + 0x00211d40;
_ZN9LevelData19setClearWeatherTimeEi = __main_start + 0x00211d48;
_ZN9LevelData12isThunderingEv = __main_start + 0x00211d50;
_ZN9LevelData13setThunderingEb = __main_start + 0x00211d58;
_ZN9LevelData14getThunderTimeEv = __main_start + 0x00211d64;
_ZN9LevelData14setThunderTimeEi = __main_start + 0x00211d6c;
_ZN9LevelData9isRainingEv = __main_start + 0x00211d74;
_ZN9LevelData10setRainingEb = __main_start + 0x00211d7c;
_ZN9LevelData11getRainTimeEv = __main_start + 0x00211d88;
_ZN9LevelData11setRainTimeEi = __main_start + 0x00211d90;
_ZN9LevelData11getGameTypeEv = __main_start + 0x00211d98;
_ZN9LevelData21isGenerateMapFeaturesEv = __main_start + 0x00211da0;
_ZN9LevelData22setGenerateMapFeaturesEb = __main_start + 0x00211da8;
_ZN9LevelData18getSpawnBonusChestEv = __main_start + 0x00211db4;
_ZN9LevelData11setGameTypeEPK8GameType = __main_start + 0x00211dbc;
_ZN9LevelData14useNewSeaLevelEv = __main_start + 0x00211e1c;
_ZN9LevelData20getHasBeenInCreativeEv = __main_start + 0x00211e24;
_ZN9LevelData20setHasBeenInCreativeEb = __main_start + 0x00211e2c;
_ZN9LevelData16getGeneratorTypeEv = __main_start + 0x00211e38;
_ZN9LevelData16setGeneratorTypeEP9LevelType = __main_start + 0x00211e40;
_ZN9LevelData19getGeneratorOptionsEv = __main_start + 0x00211e68;
_ZN9LevelData19setGeneratorOptionsEP15SuperflatConfig = __main_start + 0x00211e70;
_ZN9LevelData10isHardcoreEv = __main_start + 0x00211e78;
_ZN9LevelData11setHardcoreEb = __main_start + 0x00211e80;
_ZN9LevelData16getAllowCommandsEv = __main_start + 0x00211e8c;
_ZN9LevelData16setAllowCommandsEb = __main_start + 0x00211e94;
_ZN9LevelData13isInitializedEv = __main_start + 0x00211ea0;
_ZN9LevelData14setInitializedEb = __main_start + 0x00211ea8;
_ZN9LevelData12getGameRulesEv = __main_start + 0x00211eb4;
_ZN9LevelData9getXZSizeEv = __main_start + 0x00211ebc;
_ZN9LevelData13getDifficultyEv = __main_start + 0x00211ec4;
_ZN9LevelData13setDifficultyEPK10Difficulty = __main_start + 0x00211ecc;
_ZN9LevelData14getCloudHeightEv = __main_start + 0x00211ef8;
_ZN9LevelData14setCloudHeightEi = __main_start + 0x00211f00;
_ZN9LevelData18isDifficultyLockedEv = __main_start + 0x00211f08;
_ZN9LevelData19setDifficultyLockedEb = __main_start + 0x00211f10;
_ZN9LevelData16getDimensionDataEPK13DimensionType = __main_start + 0x00211f1c;
_ZN9LevelData16setDimensionDataEPK13DimensionTypeP11CompoundTag = __main_start + 0x00211f64;
_ZN9LevelData15func_7100212214Ev = __main_start + 0x00212214;
_ZN9LevelData15func_710021221CEv = __main_start + 0x0021221c;
_ZN9LevelData15func_7100212238Ev = __main_start + 0x00212238;
_ZN9LevelData12getHellScaleEv = __main_start + 0x0021229c;
_ZN9LevelData12setModernEndEv = __main_start + 0x002122a4;
_ZN9LevelData12getModernEndEv = __main_start + 0x002122b0;
_ZN9LevelData13getBiomeScaleEv = __main_start + 0x002122b8;
_ZN9LevelData20getBiomeCentreXChunkEv = __main_start + 0x002122c0;
_ZN9LevelData20getBiomeCentreZChunkEv = __main_start + 0x002122c8;
_ZN9LevelType10staticCtorEv = __main_start + 0x00212564;
_ZN7ListTagD1Ev = __main_start + 0x002162bc;
_ZN7ListTagD0Ev = __main_start + 0x0021637c;
_ZN7ListTag5writeEP10DataOutput = __main_start + 0x002163a0;
_ZN7ListTag4loadEP9DataInputi = __main_start + 0x00216448;
_ZN7ListTag5getIdEv = __main_start + 0x00216544;
_ZN7ListTag8toStringEv = __main_start + 0x0021654c;
_ZN7ListTag5printERKNSt3__112basic_stringIwNS0_11char_traitsIwEENS0_9allocatorIwEEEEPcRNS0_13basic_ostreamIwS3_EE = __main_start + 0x002165c4;
_ZN7ListTag18stripEmptyChildrenEv = __main_start + 0x002168f0;
_ZNK7ListTag7isEmptyEv = __main_start + 0x002169a8;
_ZNK7ListTag9getDoubleEi = __main_start + 0x00216a54;
_ZNK7ListTag8getFloatEi = __main_start + 0x00216ac8;
_ZN7ListTag4copyEv = __main_start + 0x00216be4;
_ZN7ListTag6equalsEP3Tag = __main_start + 0x00216c8c;
_ZN12LivingEntity10staticCtorEv = __main_start + 0x00216d50;
_ZN12LivingEntity4killEv = __main_start + 0x00216e14;
_ZN12LivingEntity4initEv = __main_start + 0x00216e38;
_ZN12LivingEntityC1EP5Level = __main_start + 0x0021706c;
_ZN12LivingEntity17defineSynchedDataEv = __main_start + 0x00217308;
_ZN12LivingEntity18registerAttributesEv = __main_start + 0x00217398;
_ZN12LivingEntity15checkFallDamageEdbP5BlockRK8BlockPos = __main_start + 0x00217474;
_ZN12LivingEntity10isWaterMobEv = __main_start + 0x00217608;
_ZN12LivingEntity8baseTickEv = __main_start + 0x00217610;
_ZN12LivingEntity14onChangedBlockERK8BlockPos = __main_start + 0x00217c54;
_ZN12LivingEntity6isBabyEv = __main_start + 0x00217d20;
_ZN12LivingEntity9tickDeathEv = __main_start + 0x00217d28;
_ZN12LivingEntity20shouldDropExperienceEv = __main_start + 0x00217fac;
_ZN12LivingEntity17decreaseAirSupplyEi = __main_start + 0x00217fd0;
_ZN12LivingEntity19getExperienceRewardESt10shared_ptrI6PlayerE = __main_start + 0x0021806c;
_ZN12LivingEntity25isAlwaysExperienceDropperEv = __main_start + 0x00218074;
_ZN12LivingEntity9getRandomEv = __main_start + 0x0021807c;
_ZN12LivingEntity16getLastHurtByMobEv = __main_start + 0x00218084;
_ZN12LivingEntity25getLastHurtByMobTimestampEv = __main_start + 0x0021808c;
_ZN12LivingEntity16setLastHurtByMobESt10shared_ptrI12LivingEntityE = __main_start + 0x00218094;
_ZN12LivingEntity14getLastHurtMobEv = __main_start + 0x00218104;
_ZN12LivingEntity23getLastHurtMobTimestampEv = __main_start + 0x0021810c;
_ZN12LivingEntity14setLastHurtMobESt10shared_ptrI6EntityE = __main_start + 0x00218114;
_ZN12LivingEntity15getNoActionTimeEv = __main_start + 0x002181d4;
_ZN12LivingEntity20addAdditonalSaveDataEP11CompoundTag = __main_start + 0x002182e8;
_ZN12LivingEntity22readAdditionalSaveDataEP11CompoundTag = __main_start + 0x00218820;
_ZN12LivingEntity11tickEffectsEv = __main_start + 0x0021910c;
_ZN12LivingEntity24updateInvisibilityStatusEv = __main_start + 0x002194c0;
_ZN12LivingEntity21removeEffectParticlesEv = __main_start + 0x002196b8;
_ZN12LivingEntity16removeAllEffectsEv = __main_start + 0x00219708;
_ZN12LivingEntity16getActiveEffectsEv = __main_start + 0x0021977c;
_ZN12LivingEntity9hasEffectE9MobEffect = __main_start + 0x00219804;
_ZN12LivingEntity9getEffectE9MobEffect = __main_start + 0x00219834;
_ZN12LivingEntity9addEffectEP17MobEffectInstanceRKSt10shared_ptrI6EntityE = __main_start + 0x00219864;
_ZN12LivingEntity17addEffectNoUpdateEP17MobEffectInstance = __main_start + 0x00219be0;
_ZN12LivingEntity13canBeAffectedEP17MobEffectInstance = __main_start + 0x00219c90;
_ZN12LivingEntity21isInvertedHealAndHarmEv = __main_start + 0x00219cfc;
_ZN12LivingEntity20removeEffectNoUpdateE9MobEffect = __main_start + 0x00219d20;
_ZN12LivingEntity12removeEffectE9MobEffect = __main_start + 0x00219d78;
_ZN12LivingEntity13onEffectAddedEP17MobEffectInstance = __main_start + 0x00219df0;
_ZN12LivingEntity15onEffectUpdatedEP17MobEffectInstanceb = __main_start + 0x00219eb0;
_ZN12LivingEntity15onEffectRemovedEP17MobEffectInstance = __main_start + 0x00219fe0;
_ZN12LivingEntity4healEf = __main_start + 0x0021a098;
_ZN12LivingEntity9getHealthEv = __main_start + 0x0021a0f4;
_ZN12LivingEntity9setHealthEf = __main_start + 0x0021a108;
_ZN12LivingEntity4hurtEP12DamageSourcef = __main_start + 0x0021a164;
_ZN12LivingEntity16blockUsingShieldERKSt10shared_ptrI12LivingEntityE = __main_start + 0x0021aa74;
_ZN12LivingEntity25checkTotemDeathProtectionEP12DamageSource = __main_start + 0x0021aaf4;
_ZN12LivingEntity19getLastDamageSourceEv = __main_start + 0x0021ad80;
_ZN12LivingEntity13playHurtSoundEP12DamageSource = __main_start + 0x0021add0;
_ZN12LivingEntity21isDamageSourceBlockedEP12DamageSource = __main_start + 0x0021ae58;
_ZN12LivingEntity9breakItemE12not_null_ptrI12ItemInstanceE = __main_start + 0x0021aea0;
_ZN12LivingEntity3dieEP12DamageSource = __main_start + 0x0021b120;
_ZN12LivingEntity16dropAllDeathLootEbiP12DamageSource = __main_start + 0x0021b4c4;
_ZN12LivingEntity13dropEquipmentEbi = __main_start + 0x0021b518;
_ZN12LivingEntity9knockbackESt10shared_ptrI6EntityEfdd = __main_start + 0x0021b51c;
_ZN12LivingEntity12getHurtSoundEP12DamageSource = __main_start + 0x0021b670;
_ZN12LivingEntity13getDeathSoundEv = __main_start + 0x0021b680;
_ZN12LivingEntity18getFallDamageSoundEi = __main_start + 0x0021b690;
_ZN12LivingEntity13dropDeathLootEbi = __main_start + 0x0021b6b0;
_ZN12LivingEntity8onLadderEv = __main_start + 0x0021b6b4;
_ZN12LivingEntity11isShootableEv = __main_start + 0x0021b8c8;
_ZN12LivingEntity7isAliveEv = __main_start + 0x0021b8d0;
_ZN12LivingEntity15causeFallDamageEff = __main_start + 0x0021b904;
_ZN12LivingEntity11animateHurtEv = __main_start + 0x0021bb10;
_ZN12LivingEntity13getArmorValueEv = __main_start + 0x0021bb28;
_ZN12LivingEntity9hurtArmorEf = __main_start + 0x0021bb5c;
_ZN12LivingEntity23hurtCurrentlyUsedShieldEf = __main_start + 0x0021bb60;
_ZN12LivingEntity25getDamageAfterArmorAbsorbE12DamageSourcef = __main_start + 0x0021bb64;
_ZN12LivingEntity25getDamageAfterMagicAbsorbE12DamageSourcef = __main_start + 0x0021bc08;
_ZN12LivingEntity12actuallyHurtE12DamageSourcef = __main_start + 0x0021bd3c;
_ZN12LivingEntity17spawnEatParticlesERK12ItemInstancei = __main_start + 0x0021be80;
_ZN12LivingEntity16getCombatTrackerEv = __main_start + 0x0021c074;
_ZN12LivingEntity13getKillCreditEv = __main_start + 0x0021c07c;
_ZN12LivingEntity12getMaxHealthEv = __main_start + 0x0021c12c;
_ZN12LivingEntity13getArrowCountEv = __main_start + 0x0021c164;
_ZN12LivingEntity13setArrowCountEi = __main_start + 0x0021c178;
_ZN12LivingEntity5swingEN15InteractionHand16EInteractionHandE = __main_start + 0x0021c23c;
_ZN12LivingEntity17handleEntityEventEhi = __main_start + 0x0021c488;
_ZN12LivingEntity10outOfWorldEv = __main_start + 0x0021c7c0;
_ZN12LivingEntity15updateSwingTimeEv = __main_start + 0x0021c7dc;
_ZN12LivingEntity12getAttributeEP9Attribute = __main_start + 0x0021c83c;
_ZN12LivingEntity13getAttributesEv = __main_start + 0x0021c870;
_ZN12LivingEntity10getMobTypeEv = __main_start + 0x0021c8fc;
_ZN12LivingEntity15getMainHandItemEv = __main_start + 0x0021c904;
_ZN12LivingEntity14getOffhandItemEv = __main_start + 0x0021c91c;
_ZN12LivingEntity13getItemInHandEN15InteractionHand16EInteractionHandE = __main_start + 0x0021c934;
_ZN12LivingEntity13setItemInHandEN15InteractionHand16EInteractionHandE12not_null_ptrI12ItemInstanceE = __main_start + 0x0021c980;
_ZN12LivingEntity13hasItemInSlotEPK13EquipmentSlot = __main_start + 0x0021ca28;
_ZN12LivingEntity12setSprintingEb = __main_start + 0x0021ca70;
_ZN12LivingEntity17getItemInHandIconE12not_null_ptrI12ItemInstanceEi = __main_start + 0x0021cb30;
_ZN12LivingEntity14getSoundVolumeEv = __main_start + 0x0021cb88;
_ZN12LivingEntity13getVoicePitchEv = __main_start + 0x0021cb90;
_ZN12LivingEntity10isImmobileEv = __main_start + 0x0021cbfc;
_ZN12LivingEntity19findStandUpPositionESt10shared_ptrI6EntityE = __main_start + 0x0021cc20;
_ZN12LivingEntity14shouldShowNameEv = __main_start + 0x0021d1ec;
_ZN12LivingEntity12getJumpPowerEv = __main_start + 0x0021d1f8;
_ZN12LivingEntity14jumpFromGroundEv = __main_start + 0x0021d204;
_ZN12LivingEntity11jumpInWaterEv = __main_start + 0x0021d304;
_ZN12LivingEntity10jumpInLavaEv = __main_start + 0x0021d31c;
_ZN12LivingEntity16getWaterSlowDownEv = __main_start + 0x0021d334;
_ZN12LivingEntity6travelEfff = __main_start + 0x0021d340;
_ZN12LivingEntity20updateModelAnimationEv = __main_start + 0x0021e8b8;
_ZN19MultiPlayerGameMode10isCutSceneEv = __main_start + 0x0021eae4;
_ZN12LivingEntity13getLightColorEv = __main_start + 0x0021eda8;
_ZN12LivingEntity14setBoundingBoxEP4AABB = __main_start + 0x0021f200;
_ZN12LivingEntity8getSpeedEv = __main_start + 0x0021f2f0;
_ZN12LivingEntity8setSpeedEf = __main_start + 0x0021f2f8;
_ZN12LivingEntity12doHurtTargetESt10shared_ptrI6EntityE = __main_start + 0x0021f300;
_ZN12LivingEntity10isSleepingEv = __main_start + 0x0021f35c;
_ZN12LivingEntity4tickEv = __main_start + 0x0021f364;
_ZN3Mth11wrapDegreesEf = __main_start + 0x0021fb10;
_ZN12LivingEntity12tickHeadTurnEff = __main_start + 0x0021fb68;
_ZN12LivingEntity6aiStepEv = __main_start + 0x0021fc28;
_ZN12LivingEntity12serverAiStepEv = __main_start + 0x0022033c;
_ZN12LivingEntity12pushEntitiesEv = __main_start + 0x00220340;
_ZN12LivingEntity6doPushESt10shared_ptrI6EntityE = __main_start + 0x00220548;
_ZN12LivingEntity10stopRidingEv = __main_start + 0x00220598;
_ZN12LivingEntity8rideTickEv = __main_start + 0x00220684;
_ZN12LivingEntity6lerpToEdddffib = __main_start + 0x002206b4;
_ZN12LivingEntity10setJumpingEb = __main_start + 0x002206d8;
_ZN12LivingEntity4takeESt10shared_ptrI6EntityEi = __main_start + 0x002206e4;
_ZN12LivingEntity6canSeeESt10shared_ptrI6EntityE = __main_start + 0x002208e8;
_ZN12LivingEntity13getViewVectorEf = __main_start + 0x002209a0;
_ZN12LivingEntity13getAttackAnimEf = __main_start + 0x002209e4;
_ZN12LivingEntity14getSweptVolumeEv = __main_start + 0x00220a0c;
_ZN12LivingEntity13isEffectiveAiEv = __main_start + 0x00220a50;
_ZN12LivingEntity10isPickableEv = __main_start + 0x00220a64;
_ZN12LivingEntity10isPushableEv = __main_start + 0x00220a74;
_ZN12LivingEntity8markHurtEv = __main_start + 0x00220ac0;
_ZN12LivingEntity11getYHeadRotEv = __main_start + 0x00220b24;
_ZN12LivingEntity11setYHeadRotEf = __main_start + 0x00220b2c;
_ZN12LivingEntity11setYBodyRotEf = __main_start + 0x00220b34;
_ZN12LivingEntity19getAbsorptionAmountEv = __main_start + 0x00220b3c;
_ZN12LivingEntity19setAbsorptionAmountEf = __main_start + 0x00220b44;
_ZN12LivingEntity13onEnterCombatEv = __main_start + 0x00220b54;
_ZN12LivingEntity13onLeaveCombatEv = __main_start + 0x00220b58;
_ZN12LivingEntity22updateEffectVisibilityEv = __main_start + 0x00220b5c;
_ZN12LivingEntity11isUsingItemEv = __main_start + 0x00220b68;
_ZN12LivingEntity15getUsedItemHandEv = __main_start + 0x00220b90;
_ZN12LivingEntity17updatingUsingItemEv = __main_start + 0x00220bb8;
_ZN12LivingEntity14startUsingItemEN15InteractionHand16EInteractionHandE = __main_start + 0x00220cb8;
_ZN12LivingEntity19onSyncedDataUpdatedEPK23EntityDataAccessor_Base = __main_start + 0x00220d60;
_ZN12LivingEntity21spawnItemUseParticlesE12not_null_ptrI12ItemInstanceEi = __main_start + 0x00220e64;
_ZN12LivingEntity17completeUsingItemEv = __main_start + 0x002211bc;
_ZN12LivingEntity17getTicksUsingItemEv = __main_start + 0x00221304;
_ZN12LivingEntity16releaseUsingItemEv = __main_start + 0x0022135c;
_ZN12LivingEntity16releaseUsingItemEi = __main_start + 0x00221398;
_ZN12LivingEntity13stopUsingItemEv = __main_start + 0x0022144c;
_ZN12LivingEntity10isBlockingEv = __main_start + 0x002214a4;
_ZN12LivingEntity12isFallFlyingEv = __main_start + 0x00221558;
_ZN12LivingEntity18getFallFlyingTicksEv = __main_start + 0x00221568;
_ZN12LivingEntity19isAffectedByPotionsEv = __main_start + 0x00221920;
_ZN12LivingEntity10attackableEv = __main_start + 0x00221928;
_ZN12LivingEntity22setRecordPlayingNearbyERK8BlockPosb = __main_start + 0x00221930;
_ZN12LivingEntity7getTeamEv = __main_start + 0x00221934;
_ZN12LivingEntity15stopCurrentLerpEv = __main_start + 0x00221a18;
_ZN12LivingEntity16IsCreativeFlyingEv = __main_start + 0x00221ac8;
_ZN5Llama10staticCtorEv = __main_start + 0x00221b6c;
_ZN7LongTag5writeEP10DataOutput = __main_start + 0x002266e4;
_ZN7LongTag4loadEP9DataInputi = __main_start + 0x002266fc;
_ZN7LongTag5getIdEv = __main_start + 0x0022672c;
_ZN7LongTag8toStringEv = __main_start + 0x00226734;
_ZN7LongTag4copyEv = __main_start + 0x0022678c;
_ZN7LongTag6equalsEP3Tag = __main_start + 0x002267c0;
_ZN7LongTag9getAsLongEv = __main_start + 0x00226800;
_ZN7LongTag8getAsIntEv = __main_start + 0x00226808;
_ZN7LongTag10getAsShortEv = __main_start + 0x00226810;
_ZN7LongTag9getAsByteEv = __main_start + 0x00226818;
_ZN7LongTag11getAsDoubleEv = __main_start + 0x00226820;
_ZN7LongTag10getAsFloatEv = __main_start + 0x0022682c;
_ZN11LookControlC1Ev = __main_start + 0x00227094;
_ZN3Mob18registerAttributesEv = __main_start + 0x0022947c;
_ZN18MapExtendingRecipe10StaticCtorEv = __main_start + 0x0022a91c;
_ZN6PacketC2Ev = __main_start + 0x0022f18c;
_ZN19MapSelectInfoPacketD2Ev = __main_start + 0x0022f22c;
_ZN19MapSelectInfoPacketD0Ev = __main_start + 0x0022f278;
_ZN19MapSelectInfoPacket4readEP15DataInputStream = __main_start + 0x0022f29c;
_ZN19MapSelectInfoPacket5writeEP16DataOutputStream = __main_start + 0x0022f338;
_ZN19MapSelectInfoPacket6handleEP14PacketListener = __main_start + 0x0022f390;
_ZN19MapSelectInfoPacket16getEstimatedSizeEv = __main_start + 0x0022f3f0;
_ZN8Material10staticCtorEv = __main_start + 0x0022f3fc;
_ZN11GasMaterialC1EPK13MaterialColor = __main_start + 0x0022fae8;
_ZN8Material11notPushableEv = __main_start + 0x0022fb1c;
_ZN14LiquidMaterialC1EPK13MaterialColor = __main_start + 0x0022fb28;
_ZN8Material13destroyOnPushEv = __main_start + 0x0022fb60;
_ZN18DecorationMaterialC1EPK13MaterialColor = __main_start + 0x0022fb6c;
_ZN8Material19makeDestroyedByHandEv = __main_start + 0x0022fba0;
_ZN14PortalMaterialC1EPK13MaterialColor = __main_start + 0x0022fbac;
_ZN11WebMaterialC1EPK13MaterialColor = __main_start + 0x0022fbdc;
_ZN8MaterialC2EPK13MaterialColor = __main_start + 0x0022fc0c;
_ZN8Material8isLiquidEv = __main_start + 0x0022fc3c;
_ZN8Material16letsWaterThroughEv = __main_start + 0x0022fc44;
_ZN8Material7isSolidEv = __main_start + 0x0022fc90;
_ZN8Material11blocksLightEv = __main_start + 0x0022fc98;
_ZN8Material12blocksMotionEv = __main_start + 0x0022fca0;
_ZN8Material14neverBuildableEv = __main_start + 0x0022fca8;
_ZN8Material20notAlwaysDestroyableEv = __main_start + 0x0022fcb4;
_ZN8Material9flammableEv = __main_start + 0x0022fcbc;
_ZN8Material11isFlammableEv = __main_start + 0x0022fcc8;
_ZN8Material11replaceableEv = __main_start + 0x0022fcd0;
_ZN8Material13isReplaceableEv = __main_start + 0x0022fcdc;
_ZN8Material15isSolidBlockingEv = __main_start + 0x0022fce4;
_ZN8Material19isAlwaysDestroyableEv = __main_start + 0x0022fd00;
_ZN8Material15getPushReactionEv = __main_start + 0x0022fd08;
_ZN8Material17isDestroyedByHandEv = __main_start + 0x0022fd10;
_ZNK8Material8getColorEv = __main_start + 0x0022fd18;
_ZN13MaterialColor10staticCtorEv = __main_start + 0x0022fd20;
_ZN13MaterialColor23staticCtorAfterDyeColorEv = __main_start + 0x0023049c;
_ZN13MaterialColorC1Ei16eMinecraftColour = __main_start + 0x00230710;
_ZNK13MaterialColor17calculateRGBColorEi = __main_start + 0x00230728;
_ZN13MaterialColor14getDyeMaterialEPK8DyeColor = __main_start + 0x002307b4;
_ZN15OldChunkStorage4saveEP10LevelChunkP5LevelP11CompoundTag = __main_start + 0x00232aa4;
_ZN20McRegionChunkStorage10staticCtorEv = __main_start + 0x00233aa4;
_ZN26McRegionLevelStorageSourceC1E4FileP14DataFixerUpper = __main_start + 0x0023436c;
_ZN19MegaPineTreeFeature10staticCtorEv = __main_start + 0x00234e04;
_ZN9MesaBiome10staticCtorEv = __main_start + 0x002396b8;
_ZN8Minecart10staticCtorEv = __main_start + 0x0023a94c;
_ZN20MinecartCommandBlock10staticCtorEv = __main_start + 0x0023e86c;
_ZN15MinecartFurnace10staticCtorEv = __main_start + 0x0023f5d8;
MinecraftWorld_RunStaticCtors = __main_start + 0x00241f58;
_ZN6Packet10staticCtorEv = __main_start + 0x00242258;
_ZN9MobEffect10staticCtorEv = __main_start + 0x00244c34;
_ZN10MobEffects10staticCtorEv = __main_start + 0x00246450;
_ZN11BlockEntity10staticCtorEv = __main_start + 0x00246bd8;
_ZN20OceanMonumentFeature10staticCtorEv = __main_start + 0x00246efc;
_ZN19OceanMonumentPieces18OceanMonumentPiece10staticCtorEv = __main_start + 0x0024714c;
_ZN3Mob10staticCtorEv = __main_start + 0x0024722c;
_ZN6Ocelot10staticCtorEv = __main_start + 0x00247274;
_ZN6Parrot10staticCtorEv = __main_start + 0x002472e0;
_ZN3Mob4initEv = __main_start + 0x0024c4bc;
_ZN3MobC1Ev = __main_start + 0x0024c6b4;
_ZN3Mob4tickEv = __main_start + 0x0024d18c;
_ZN3Mob6aiStepEv = __main_start + 0x0024e948;
_ZN7MonsterC1Ev = __main_start + 0x00255d44;
_ZN7Monster14getSoundSourceEv = __main_start + 0x00255df8;
_ZN7Monster6aiStepEv = __main_start + 0x00255e00;
_ZN7Monster4tickEv = __main_start + 0x00255e54;
_ZN11MoveControlC1Ev = __main_start + 0x00257b34;
_ZN21MoveEntityPacketSmall4readEP15DataInputStream = __main_start + 0x00258260;
_ZN21MoveEntityPacketSmall5writeEP16DataOutputStream = __main_start + 0x00258294;
_ZN21MoveEntityPacketSmall6handleEP14PacketListener = __main_start + 0x002582d4;
_ZN21MoveEntityPacketSmall16getEstimatedSizeEv = __main_start + 0x00258334;
_ZN21MoveEntityPacketSmall16canBeInvalidatedEv = __main_start + 0x0025833c;
_ZN21MoveEntityPacketSmall15isInvalidatedByESt10shared_ptrI6PacketE = __main_start + 0x00258344;
_ZN21MoveEntityPacketSmall6PosRot4readEP15DataInputStream = __main_start + 0x0025849c;
_ZN21MoveEntityPacketSmall6PosRot5writeEP16DataOutputStream = __main_start + 0x0025857c;
_ZN21MoveEntityPacketSmall6PosRot16getEstimatedSizeEv = __main_start + 0x0025864c;
_ZN21MoveEntityPacketSmall3Pos4readEP15DataInputStream = __main_start + 0x002586e4;
_ZN21MoveEntityPacketSmall3Pos5writeEP16DataOutputStream = __main_start + 0x0025877c;
_ZN21MoveEntityPacketSmall3Pos16getEstimatedSizeEv = __main_start + 0x00258814;
_ZN21MoveEntityPacketSmall3Rot4readEP15DataInputStream = __main_start + 0x002588ac;
_ZN21MoveEntityPacketSmall3Rot5writeEP16DataOutputStream = __main_start + 0x0025892c;
_ZN21MoveEntityPacketSmall3Rot16getEstimatedSizeEv = __main_start + 0x002589ac;
_ZN3Mth17cached_atan_indexEii = __main_start + 0x0025a290;
_ZN3Mth4initEv = __main_start + 0x0025a34c;
_ZN3Mth4fracEd = __main_start + 0x0025a98c;
_ZN5NbtIo15writeCompressedEP11CompoundTagP12OutputStream = __main_start + 0x0025f778;
_ZN15OldChunkStorage22CreateNewThreadStorageEv = __main_start + 0x00283838;
_ZN15OldChunkStorageC1E4Fileb = __main_start + 0x002838b4;
_ZN15OldChunkStorage7getFileEii = __main_start + 0x00283934;
_ZN15OldChunkStorage4loadEP5LeveliiP10LevelChunk = __main_start + 0x00283bcc;
_ZN15OldChunkStorage4saveEP5LevelP10LevelChunk = __main_start + 0x00283ef0;
_ZN15OldChunkStorage4tickEv = __main_start + 0x00284758;
_ZN15OldChunkStorage5flushEv = __main_start + 0x0028475c;
_ZN15OldChunkStorage12saveEntitiesEP5LevelP10LevelChunk = __main_start + 0x00284760;
_ZN6Packet6handleEP14PacketListener = __main_start + 0x0028c384;
_ZN6Packet16canBeInvalidatedEv = __main_start + 0x0028c76c;
_ZN6Packet15isInvalidatedByENSt3__110shared_ptrIS_EE = __main_start + 0x0028c774;
_ZN6Packet6isAyncEv = __main_start + 0x0028c77c;
_ZN6Packet16getEstimatedSizeEv = __main_start + 0x0028c784;
_ZN6Packet25tryReplaceDuplicatePacketEPNSt3__15dequeINS0_10shared_ptrIS_EENS0_9allocatorIS3_EEEE = __main_start + 0x0028c78c;
_ZN14PacketListener17handleBlockUpdateESt10shared_ptrI28ClientboundBlockUpdatePacketE = __main_start + 0x0028c794;
_ZN14PacketListener17onUnhandledPacketESt10shared_ptrI6PacketE = __main_start + 0x0028c798;
_ZN14PacketListener12onDisconnectEN16DisconnectPacket17eDisconnectReasonEPv = __main_start + 0x0028c79c;
_ZN14PacketListener22handleContainerContentESt10shared_ptrI36ClientboundContainerSetContentPacketE = __main_start + 0x0028c7a0;
_ZN14PacketListener22handleEntityLinkPacketESt10shared_ptrI30ClientboundSetEntityLinkPacketE = __main_start + 0x0028c7f8;
_ZN14PacketListener19handleClientCommandESt10shared_ptrI30ServerboundClientCommandPacketE = __main_start + 0x0028c850;
_ZN14PacketListener10handleChatESt10shared_ptrI21ServerboundChatPacketE = __main_start + 0x0028c8a8;
_ZN14PacketListener26handleContainerButtonClickESt10shared_ptrI37ServerboundContainerButtonClickPacketE = __main_start + 0x0028c900;
_ZN14PacketListener16handleBlockEventESt10shared_ptrI27ClientboundBlockEventPacketE = __main_start + 0x0028c958;
_ZN14PacketListener22handleChatAutoCompleteESt10shared_ptrI33ClientboundChatAutoCompletePacketE = __main_start + 0x0028c9b0;
_ZN14PacketListener15handleAddPlayerESt10shared_ptrI26ClientboundAddPlayerPacketE = __main_start + 0x0028ca08;
_ZN14PacketListener31handleSetEntityPassengersPacketESt10shared_ptrI30ClientboundSetPassengersPacketE = __main_start + 0x0028ca60;
_ZN14PacketListener15handleExplosionESt10shared_ptrI24ClientboundExplodePacketE = __main_start + 0x0028cab8;
_ZN14PacketListener20handleSetCarriedItemESt10shared_ptrI31ServerboundSetCarriedItemPacketE = __main_start + 0x0028cb10;
_ZN14PacketListener15handleUseItemOnESt10shared_ptrI26ServerboundUseItemOnPacketE = __main_start + 0x0028cb68;
_ZN14PacketListener19handleParticleEventESt10shared_ptrI31ClientboundLevelParticlesPacketE = __main_start + 0x0028cbc0;
_ZN14PacketListener16handleMoveEntityESt10shared_ptrI27ClientboundMoveEntityPacketE = __main_start + 0x0028cc18;
_ZN14PacketListener20handleSetCarriedItemESt10shared_ptrI31ClientboundSetCarriedItemPacketE = __main_start + 0x0028cc70;
_ZN14PacketListener23handleBlockRegionUpdateESt10shared_ptrI23BlockRegionUpdatePacketE = __main_start + 0x0028ccc8;
_ZN14PacketListener15handleAddEntityESt10shared_ptrI26ClientboundAddEntityPacketE = __main_start + 0x0028cd20;
_ZN14PacketListener13handleAnimateESt10shared_ptrI24ClientboundAnimatePacketE = __main_start + 0x0028cd78;
_ZN14PacketListener20handleContainerClickESt10shared_ptrI31ServerboundContainerClickPacketE = __main_start + 0x0028cdd0;
_ZN14PacketListener11handleLoginESt10shared_ptrI22ClientboundLoginPacketE = __main_start + 0x0028ce28;
_ZN14PacketListener12handleAddMobESt10shared_ptrI23ClientboundAddMobPacketE = __main_start + 0x0028ce80;
_ZN14PacketListener13handleRespawnESt10shared_ptrI24ClientboundRespawnPacketE = __main_start + 0x0028ced8;
_ZN14PacketListener21handleRemoveMobEffectESt10shared_ptrI32ClientboundRemoveMobEffectPacketE = __main_start + 0x0028cf30;
_ZN14PacketListener21handlePlayerAbilitiesESt10shared_ptrI32ServerboundPlayerAbilitiesPacketE = __main_start + 0x0028cf88;
_ZN14PacketListener21handlePlayerAbilitiesESt10shared_ptrI32ClientboundPlayerAbilitiesPacketE = __main_start + 0x0028cfe0;
_ZN14PacketListener22handleContainerSetSlotESt10shared_ptrI33ClientboundContainerSetSlotPacketE = __main_start + 0x0028d038;
_ZN14PacketListener19handleCustomPayloadESt10shared_ptrI30ClientboundCustomPayloadPacketE = __main_start + 0x0028d090;
_ZN14PacketListener21handleDamageIndicatorESt10shared_ptrI32ClientboundDamageIndicatorPacketE = __main_start + 0x0028d0e8;
_ZN14PacketListener22handleContainerSetDataESt10shared_ptrI33ClientboundContainerSetDataPacketE = __main_start + 0x0028d140;
_ZN14PacketListener14handlePreLoginESt10shared_ptrI25ServerboundPreLoginPacketE = __main_start + 0x0028d198;
_ZN14PacketListener16handleMovePlayerESt10shared_ptrI31ClientboundPlayerPositionPacketE = __main_start + 0x0028d1f0;
_ZN14PacketListener18handlePlayerCombatESt10shared_ptrI29ClientboundPlayerCombatPacketE = __main_start + 0x0028d248;
_ZN14PacketListener22handleChangeDifficultyESt10shared_ptrI33ClientboundChangeDifficultyPacketE = __main_start + 0x0028d2a0;
_ZN14PacketListener19handleCustomPayloadESt10shared_ptrI30ServerboundCustomPayloadPacketE = __main_start + 0x0028d2f8;
_ZN14PacketListener18handleContainerAckESt10shared_ptrI29ClientboundContainerAckPacketE = __main_start + 0x0028d350;
_ZN14PacketListener25handleChunkVisibilityAreaESt10shared_ptrI25ChunkVisibilityAreaPacketE = __main_start + 0x0028d3a8;
_ZN14PacketListener19handleMapSelectInfoESt10shared_ptrI19MapSelectInfoPacketE = __main_start + 0x0028d400;
_ZN14PacketListener20handleContainerCloseESt10shared_ptrI31ClientboundContainerClosePacketE = __main_start + 0x0028d458;
_ZN14PacketListener17handleMapItemDataESt10shared_ptrI28ClientboundMapItemDataPacketE = __main_start + 0x0028d4b0;
_ZN14PacketListener18handleContainerAckESt10shared_ptrI29ServerboundContainerAckPacketE = __main_start + 0x0028d508;
_ZN14PacketListener16handlePlayerInfoESt10shared_ptrI16PlayerInfoPacketE = __main_start + 0x0028d560;
_ZN14PacketListener21handleChunkVisibilityESt10shared_ptrI21ChunkVisibilityPacketE = __main_start + 0x0028d5b8;
_ZN14PacketListener17handleAddPaintingESt10shared_ptrI28ClientboundAddPaintingPacketE = __main_start + 0x0028d610;
_ZN14PacketListener21handleBlockEntityDataESt10shared_ptrI32ClientboundBlockEntityDataPacketE = __main_start + 0x0028d668;
_ZN14PacketListener13handleAnimateESt10shared_ptrI22ServerboundSwingPacketE = __main_start + 0x0028d6c0;
_ZN14PacketListener19handleContainerOpenESt10shared_ptrI30ClientboundContainerOpenPacketE = __main_start + 0x0028d718;
_ZN14PacketListener14handleInteractESt10shared_ptrI25ServerboundInteractPacketE = __main_start + 0x0028d770;
_ZN14PacketListener16handleDisconnectESt10shared_ptrI16DisconnectPacketE = __main_start + 0x0028d7c8;
_ZN14PacketListener21handleAddGlobalEntityESt10shared_ptrI32ClientboundAddGlobalEntityPacketE = __main_start + 0x0028d820;
_ZN14PacketListener23handleChunkBlocksUpdateESt10shared_ptrI34ClientboundChunkBlocksUpdatePacketE = __main_start + 0x0028d878;
_ZN14PacketListener17handleEntityEventESt10shared_ptrI28ClientboundEntityEventPacketE = __main_start + 0x0028d8d0;
_ZN14PacketListener13handleGetInfoESt10shared_ptrI13GetInfoPacketE = __main_start + 0x0028d928;
_ZN14PacketListener21handleSetEntityMotionESt10shared_ptrI32ClientboundSetEntityMotionPacketE = __main_start + 0x0028d980;
_ZN14PacketListener21handleMoveEntitySmallESt10shared_ptrI21MoveEntityPacketSmallE = __main_start + 0x0028d9d8;
_ZN14PacketListener16handleLevelEventESt10shared_ptrI27ClientboundLevelEventPacketE = __main_start + 0x0028da30;
_ZN14PacketListener28handleEntityActionAtPositionESt10shared_ptrI28ClientboundPlayerSleepPacketE = __main_start + 0x0028da88;
_ZN14PacketListener14handlePreLoginESt10shared_ptrI25ClientboundPreLoginPacketE = __main_start + 0x0028dae0;
_ZN14PacketListener17handlePlayerInputESt10shared_ptrI28ServerboundPlayerInputPacketE = __main_start + 0x0028db38;
_ZN14PacketListener22handleAddExperienceOrbESt10shared_ptrI33ClientboundAddExperienceOrbPacketE = __main_start + 0x0028db90;
_ZN14PacketListener14handleGameModeESt10shared_ptrI14GameModePacketE = __main_start + 0x0028dbe8;
_ZN14PacketListener20handleOpenSignEditorESt10shared_ptrI31ClientboundOpenSignEditorPacketE = __main_start + 0x0028dc40;
_ZN14PacketListener20handleContainerCloseESt10shared_ptrI31ServerboundContainerClosePacketE = __main_start + 0x0028dc98;
_ZN14PacketListener16handleMovePlayerESt10shared_ptrI27ServerboundMovePlayerPacketE = __main_start + 0x0028dcf0;
_ZN14PacketListener15handleKeepAliveESt10shared_ptrI26ServerboundKeepAlivePacketE = __main_start + 0x0028dd48;
_ZN14PacketListener10handleChatESt10shared_ptrI21ClientboundChatPacketE = __main_start + 0x0028dda0;
_ZN14PacketListener8handleXZESt10shared_ptrI8XZPacketE = __main_start + 0x0028ddf8;
_ZN14PacketListener15handleRotateMobESt10shared_ptrI27ClientboundRotateHeadPacketE = __main_start + 0x0028de50;
_ZN14PacketListener15handleAwardStatESt10shared_ptrI26ClientboundAwardStatPacketE = __main_start + 0x0028dea8;
_ZN14PacketListener22handleBlockDestructionESt10shared_ptrI33ClientboundBlockDestructionPacketE = __main_start + 0x0028df00;
_ZN14PacketListener34handleUpdateGameRuleProgressPacketESt10shared_ptrI28UpdateGameRuleProgressPacketE = __main_start + 0x0028df58;
_ZN14PacketListener21canHandleAsyncPacketsEv = __main_start + 0x0028df5c;
_ZN14PacketListener16handleBossUpdateESt10shared_ptrI26ClientboundBossEventPacketE = __main_start + 0x0028df64;
_ZN14PacketListener36handleClientboundSetPlayerTeamPacketESt10shared_ptrI30ClientboundSetPlayerTeamPacketE = __main_start + 0x0028dfbc;
_ZN14PacketListener15handleKeepAliveESt10shared_ptrI26ClientboundKeepAlivePacketE = __main_start + 0x0028e014;
_ZN14PacketListener19handleSetEntityDataESt10shared_ptrI30ClientboundSetEntityDataPacketE = __main_start + 0x0028e06c;
_ZN14PacketListener15handleCraftItemESt10shared_ptrI15CraftItemPacketE = __main_start + 0x0028e0c4;
_ZN14PacketListener15handleTradeItemESt10shared_ptrI15TradeItemPacketE = __main_start + 0x0028e11c;
_ZN14PacketListener18handleDebugOptionsESt10shared_ptrI18DebugOptionsPacketE = __main_start + 0x0028e174;
_ZN14PacketListener21handleUpdateMobEffectESt10shared_ptrI32ClientboundUpdateMobEffectPacketE = __main_start + 0x0028e1cc;
_ZN14PacketListener22handleChatAutoCompleteESt10shared_ptrI33ServerboundChatAutoCompletePacketE = __main_start + 0x0028e224;
_ZN14PacketListener15handleSetCameraESt10shared_ptrI26ClientboundSetCameraPacketE = __main_start + 0x0028e27c;
_ZN14PacketListener15handleSetBorderESt10shared_ptrI26ClientboundSetBorderPacketE = __main_start + 0x0028e2d4;
_ZN14PacketListener15handleSetTitlesESt10shared_ptrI26ClientboundSetTitlesPacketE = __main_start + 0x0028e32c;
_ZN14PacketListener26handleTabListCustomisationESt10shared_ptrI24ClientboundTabListPacketE = __main_start + 0x0028e384;
_ZN14PacketListener16handleKickPlayerESt10shared_ptrI16KickPlayerPacketE = __main_start + 0x0028e3dc;
_ZN14PacketListener18handleResourcePackESt10shared_ptrI29ClientboundResourcePackPacketE = __main_start + 0x0028e434;
_ZN14PacketListener17handleGameCommandESt10shared_ptrI17GameCommandPacketE = __main_start + 0x0028e48c;
_ZN14PacketListener18handleItemCooldownESt10shared_ptrI25ClientboundCooldownPacketE = __main_start + 0x0028e4e4;
_ZN14PacketListener17handleMoveVehicleESt10shared_ptrI28ClientboundMoveVehiclePacketE = __main_start + 0x0028e53c;
_ZN14PacketListener10handleVoteESt10shared_ptrI10VotePacketE = __main_start + 0x0028e594;
_ZN14PacketListener17handleMoveVehicleESt10shared_ptrI28ServerboundMoveVehiclePacketE = __main_start + 0x0028e5ec;
_ZN14PacketListener27handleServerSettingsChangedESt10shared_ptrI27ServerSettingsChangedPacketE = __main_start + 0x0028e644;
_ZN14PacketListener13handleTextureESt10shared_ptrI13TexturePacketE = __main_start + 0x0028e69c;
_ZN14PacketListener24handleTextureAndGeometryESt10shared_ptrI24TextureAndGeometryPacketE = __main_start + 0x0028e6f4;
_ZN14PacketListener20handleTeleportEntityESt10shared_ptrI31ClientboundTeleportEntityPacketE = __main_start + 0x0028e74c;
_ZN14PacketListener22handleUpdateAttributesESt10shared_ptrI33ClientboundUpdateAttributesPacketE = __main_start + 0x0028e7a4;
_ZN14PacketListener19handleAcceptedLoginESt10shared_ptrI22ClientboundLoginPacketE = __main_start + 0x0028e7fc;
_ZN14PacketListener32handleBlockCollectionDestructionESt10shared_ptrI43ClientboundBlockCollectionDestructionPacketE = __main_start + 0x0028e854;
_ZN14PacketListener15handleGameEventESt10shared_ptrI26ClientboundGameEventPacketE = __main_start + 0x0028e8ac;
_ZN14PacketListener18handleRemoveEntityESt10shared_ptrI31ClientboundRemoveEntitiesPacketE = __main_start + 0x0028e904;
_ZN14PacketListener21handleSetEquippedItemESt10shared_ptrI32ClientboundSetEquippedItemPacketE = __main_start + 0x0028e95c;
_ZN14PacketListener19handleSetExperienceESt10shared_ptrI30ClientboundSetExperiencePacketE = __main_start + 0x0028e9b4;
_ZN14PacketListener15handleSetHealthESt10shared_ptrI26ClientboundSetHealthPacketE = __main_start + 0x0028ea0c;
_ZN14PacketListener25handleSetPlayerTeamPacketESt10shared_ptrI30ClientboundSetPlayerTeamPacketE = __main_start + 0x0028ea64;
_ZN14PacketListener14handleSetSpawnESt10shared_ptrI33ClientboundSetSpawnPositionPacketE = __main_start + 0x0028eabc;
_ZN14PacketListener13handleSetTimeESt10shared_ptrI24ClientboundSetTimePacketE = __main_start + 0x0028eb14;
_ZN14PacketListener16handleSoundEventESt10shared_ptrI22ClientboundSoundPacketE = __main_start + 0x0028eb6c;
_ZN14PacketListener20handleTakeItemEntityESt10shared_ptrI31ClientboundTakeItemEntityPacketE = __main_start + 0x0028ebc4;
_ZN14PacketListener20handleUpdateProgressESt10shared_ptrI20UpdateProgressPacketE = __main_start + 0x0028ec1c;
_ZN14PacketListener19handleTextureChangeESt10shared_ptrI19TextureChangePacketE = __main_start + 0x0028ec74;
_ZN14PacketListener30handleTextureAndGeometryChangeESt10shared_ptrI30TextureAndGeometryChangePacketE = __main_start + 0x0028eccc;
_ZN14PacketListener22handleScoreboardPacketESt10shared_ptrI16ScoreboardPacketE = __main_start + 0x0028ed24;
_ZN14PacketListener17handlePlayerReadyESt10shared_ptrI17PlayerReadyPacketE = __main_start + 0x0028ed7c;
_ZN14PacketListener13handlePowerupESt10shared_ptrI24ClientboundPowerupPacketE = __main_start + 0x0028edd4;
_ZN14PacketListener40handleMiniGamePlayerSettingsUpdatePacketESt10shared_ptrI39ClientboundMGPlayerSettingsUpdatePacketE = __main_start + 0x0028ee2c;
_ZN14PacketListener23handleClientInformationESt10shared_ptrI34ServerboundClientInformationPacketE = __main_start + 0x0028ee84;
_ZN14PacketListener18handlePlayerActionESt10shared_ptrI29ServerboundPlayerActionPacketE = __main_start + 0x0028eedc;
_ZN14PacketListener19handlePlayerCommandESt10shared_ptrI30ServerboundPlayerCommandPacketE = __main_start + 0x0028ef34;
_ZN14PacketListener25handleSetCreativeModeSlotESt10shared_ptrI36ServerboundSetCreativeModeSlotPacketE = __main_start + 0x0028ef8c;
_ZN14PacketListener16handleSignUpdateESt10shared_ptrI27ServerboundSignUpdatePacketE = __main_start + 0x0028efe4;
_ZN14PacketListener13handleUseItemESt10shared_ptrI24ServerboundUseItemPacketE = __main_start + 0x0028f03c;
_ZN14PacketListener28handleTeleportToEntityPacketESt10shared_ptrI33ServerboundTeleportToEntityPacketE = __main_start + 0x0028f094;
_ZN14PacketListener26handleResourcePackResponseESt10shared_ptrI29ServerboundResourcePackPacketE = __main_start + 0x0028f0ec;
_ZN14PacketListener16handlePaddleBoatESt10shared_ptrI27ServerboundPaddleBoatPacketE = __main_start + 0x0028f144;
_ZN14PacketListener26handleAcceptTeleportPacketESt10shared_ptrI36ServerboundAcceptTeleportationPacketE = __main_start + 0x0028f19c;
_ZN12ParticleType10staticCtorEv = __main_start + 0x0029193c;
_ZN22PathNavigationListenerC2Ev = __main_start + 0x00294550;
_ZN16PerformanceTimerC2Ev = __main_start + 0x00294a04;
_ZN16PerformanceTimer16PrintElapsedTimeERKNSt7__cxx1112basic_stringIwSt11char_traitsIwESaIwEEE = __main_start + 0x00294a08;
_ZN6PacketD0Ev = __main_start + 0x00294a0c;
_ZN8MaterialD2Ev = __main_start + 0x00294a30;
_ZN8MaterialD0Ev = __main_start + 0x00294a34;
_ZN5Level21blockEntityAddedExtraESt10shared_ptrI11BlockEntityE = __main_start + 0x00294cd0;
_ZN5Level23blockEntityRemovedExtraESt10shared_ptrI11BlockEntityE = __main_start + 0x00294cd4;
_ZN5Level19newPrimedTntAllowedEv = __main_start + 0x00294cd8;
_ZN5Level22newFallingBlockAllowedEv = __main_start + 0x00294ce0;
_ZN5Level23explodeNextEnderCrystalEv = __main_start + 0x00294ce8;
_ZN14PacketListenerD0Ev = __main_start + 0x00294db0;
_ZN7LongTagD0Ev = __main_start + 0x00295104;
_ZN19MapSelectInfoPacket11getPacketIdEv = __main_start + 0x00295488;
_ZN18MockedLevelStorage9getFolderEv = __main_start + 0x00295c50;
_ZN21MoveEntityPacketSmallD0Ev = __main_start + 0x00295d24;
_ZN21MoveEntityPacketSmall11getPacketIdEv = __main_start + 0x00295d48;
_ZN21MoveEntityPacketSmall6PosRotD0Ev = __main_start + 0x00295d58;
_ZN21MoveEntityPacketSmall6PosRot11getPacketIdEv = __main_start + 0x00295d7c;
_ZN21MoveEntityPacketSmallD2Ev = __main_start + 0x00295d84;
_ZN21MoveEntityPacketSmall3PosD0Ev = __main_start + 0x00295dac;
_ZN21MoveEntityPacketSmall3Pos11getPacketIdEv = __main_start + 0x00295dd0;
_ZN21MoveEntityPacketSmall3RotD0Ev = __main_start + 0x00295dd8;
_ZN21MoveEntityPacketSmall3Rot11getPacketIdEv = __main_start + 0x00295dfc;
_ZN15OldChunkStorageD2Ev = __main_start + 0x00296cec;
_ZN15OldChunkStorageD0Ev = __main_start + 0x00296d20;
_ZN11GasMaterialD0Ev = __main_start + 0x00297cc8;
_ZN11GasMaterial7isSolidEv = __main_start + 0x00297cec;
_ZN11GasMaterial11blocksLightEv = __main_start + 0x00297cf4;
_ZN11GasMaterial12blocksMotionEv = __main_start + 0x00297cfc;
_ZN14LiquidMaterialD0Ev = __main_start + 0x00297d04;
_ZN14LiquidMaterial8isLiquidEv = __main_start + 0x00297d28;
_ZN14LiquidMaterial7isSolidEv = __main_start + 0x00297d30;
_ZN14LiquidMaterial12blocksMotionEv = __main_start + 0x00297d38;
_ZN18DecorationMaterialD0Ev = __main_start + 0x00297d40;
_ZN18DecorationMaterial7isSolidEv = __main_start + 0x00297d64;
_ZN18DecorationMaterial11blocksLightEv = __main_start + 0x00297d6c;
_ZN18DecorationMaterial12blocksMotionEv = __main_start + 0x00297d74;
_ZN14PortalMaterialD0Ev = __main_start + 0x00297d7c;
_ZN14PortalMaterial7isSolidEv = __main_start + 0x00297da0;
_ZN14PortalMaterial11blocksLightEv = __main_start + 0x00297da8;
_ZN14PortalMaterial12blocksMotionEv = __main_start + 0x00297db0;
_ZN11WebMaterialD0Ev = __main_start + 0x00297db8;
_ZN11WebMaterial12blocksMotionEv = __main_start + 0x00297ddc;
_ZN11PickaxeItem10staticCtorEv = __main_start + 0x002bdd94;
_ZN3Pig10staticCtorEv = __main_start + 0x002be36c;
_ZN6Random7nextIntEi = __main_start + 0x002bf6b4;
_ZN6Random9nextFloatEv = __main_start + 0x002bfc68;
_ZN11PineFeature10staticCtorEv = __main_start + 0x002c01f8;
_ZN6Player10staticCtorEv = __main_start + 0x002c71c4;
_ZN6Random7nextIntEv = __main_start + 0x002ccb90;
_ZN6Player13getSleepTimerEv = __main_start + 0x002cf688;
_ZN6Player14isAllowedToUseEP5Block = __main_start + 0x002d22dc;
_ZN6Player12CheckPowerupEN12PowerupItems23eGlide_Timed_Powerup_IDE = __main_start + 0x002d3194;
_ZN16PlayerInfoPacket4readEP15DataInputStream = __main_start + 0x002d3818;
_ZN16PlayerInfoPacket5writeEP16DataOutputStream = __main_start + 0x002d38a0;
_ZN16PlayerInfoPacket6handleEP14PacketListener = __main_start + 0x002d3920;
_ZN16PlayerInfoPacket16getEstimatedSizeEv = __main_start + 0x002d3970;
_ZN17PlayerReadyPacketD2Ev = __main_start + 0x002d399c;
_ZN17PlayerReadyPacketD0Ev = __main_start + 0x002d39c4;
_ZN17PlayerReadyPacketC2Ejb = __main_start + 0x002d3a24;
_ZN17PlayerReadyPacket6handleEP14PacketListener = __main_start + 0x002d3a70;
_ZN17PlayerReadyPacket4readEP15DataInputStream = __main_start + 0x002d3ac0;
_ZN17PlayerReadyPacket5writeEP16DataOutputStream = __main_start + 0x002d3b0c;
_ZN17PlayerReadyPacket16getEstimatedSizeEv = __main_start + 0x002d3b50;
_ZN9PolarBear10staticCtorEv = __main_start + 0x002d43b0;
_ZN12PortalForcer10findPortalESt10shared_ptrI6EntityEfii = __main_start + 0x002d726c;
_ZN6Potion10StaticCtorEv = __main_start + 0x002d933c;
_ZN13PotionBrewing10StaticCtorEv = __main_start + 0x002db6b4;
_ZN7Potions10StaticCtorEv = __main_start + 0x002dcefc;
_ZN9PrimedTnt10staticCtorEv = __main_start + 0x002dfd70;
_ZN6Rabbit10staticCtorEv = __main_start + 0x002e4814;
_ZN6RandomC2Ev = __main_start + 0x002e6e84;
_ZN6Random7setSeedEx = __main_start + 0x002e6ecc;
_ZN27RandomScatteredLargeFeature10staticCtorEv = __main_start + 0x002e81a4;
_ZN7Recipes10staticCtorEv = __main_start + 0x002e9d8c;
_ZN15RoofTreeFeature10staticCtorEv = __main_start + 0x002fcaac;
_ZN18SavannaTreeFeature10staticCtorEv = __main_start + 0x003014c8;
_ZN22ScatteredFeaturePieces18JunglePyramidPiece10staticCtorEv = __main_start + 0x00309eec;
_ZN16ScoreboardPacketD2Ev = __main_start + 0x0030d66c;
_ZN16ScoreboardPacketD0Ev = __main_start + 0x0030d6b8;
_ZN16ScoreboardPacket4readEP15DataInputStream = __main_start + 0x0030d6dc;
_ZN16ScoreboardPacket5writeEP16DataOutputStream = __main_start + 0x0030d7d0;
_ZN16ScoreboardPacket6handleEP14PacketListener = __main_start + 0x0030d814;
_ZN16ScoreboardPacket16getEstimatedSizeEv = __main_start + 0x0030d864;
_ZN7SensingC1Ev = __main_start + 0x0030e334;
_ZN36ServerboundAcceptTeleportationPacket4readEP15DataInputStream = __main_start + 0x0030e414;
_ZN36ServerboundAcceptTeleportationPacket5writeEP16DataOutputStream = __main_start + 0x0030e43c;
_ZN36ServerboundAcceptTeleportationPacket6handleEP14PacketListener = __main_start + 0x0030e44c;
_ZN33ServerboundChatAutoCompletePacketD2Ev = __main_start + 0x0030e4e4;
_ZN33ServerboundChatAutoCompletePacketD0Ev = __main_start + 0x0030e530;
_ZN33ServerboundChatAutoCompletePacket4readEP15DataInputStream = __main_start + 0x0030e554;
_ZN33ServerboundChatAutoCompletePacket5writeEP16DataOutputStream = __main_start + 0x0030e658;
_ZN33ServerboundChatAutoCompletePacket6handleEP14PacketListener = __main_start + 0x0030e6d4;
_ZN21ServerboundChatPacketD2Ev = __main_start + 0x0030e760;
_ZN21ServerboundChatPacketD0Ev = __main_start + 0x0030e7a4;
_ZN21ServerboundChatPacket4readEP15DataInputStream = __main_start + 0x0030e7c8;
_ZN21ServerboundChatPacket5writeEP16DataOutputStream = __main_start + 0x0030e86c;
_ZN21ServerboundChatPacket6handleEP14PacketListener = __main_start + 0x0030e874;
_ZN30ServerboundClientCommandPacket4readEP15DataInputStream = __main_start + 0x0030e938;
_ZN30ServerboundClientCommandPacket5writeEP16DataOutputStream = __main_start + 0x0030e968;
_ZN30ServerboundClientCommandPacket6handleEP14PacketListener = __main_start + 0x0030e980;
_ZN30ServerboundClientCommandPacket16getEstimatedSizeEv = __main_start + 0x0030e9f8;
_ZN29ServerboundContainerAckPacketD2Ev = __main_start + 0x0030ea3c;
_ZN29ServerboundContainerAckPacketD0Ev = __main_start + 0x0030ea64;
_ZN29ServerboundContainerAckPacket6handleEP14PacketListener = __main_start + 0x0030eadc;
_ZN29ServerboundContainerAckPacket4readEP15DataInputStream = __main_start + 0x0030eb2c;
_ZN29ServerboundContainerAckPacket5writeEP16DataOutputStream = __main_start + 0x0030eb90;
_ZN37ServerboundContainerButtonClickPacket6handleEP14PacketListener = __main_start + 0x0030ec74;
_ZN37ServerboundContainerButtonClickPacket4readEP15DataInputStream = __main_start + 0x0030ecc4;
_ZN37ServerboundContainerButtonClickPacket5writeEP16DataOutputStream = __main_start + 0x0030ed14;
_ZN37ServerboundContainerButtonClickPacket16getEstimatedSizeEv = __main_start + 0x0030ed58;
_ZN31ServerboundContainerClickPacketD2Ev = __main_start + 0x0030eee0;
_ZN31ServerboundContainerClickPacketD0Ev = __main_start + 0x0030ef54;
_ZN31ServerboundContainerClickPacket6handleEP14PacketListener = __main_start + 0x0030ef78;
_ZN31ServerboundContainerClickPacket4readEP15DataInputStream = __main_start + 0x0030efc8;
_ZN31ServerboundContainerClickPacket5writeEP16DataOutputStream = __main_start + 0x0030f0f0;
_ZN31ServerboundContainerClickPacket16getEstimatedSizeEv = __main_start + 0x0030f1d0;
_ZN31ServerboundContainerClosePacketD2Ev = __main_start + 0x0030f2ec;
_ZN31ServerboundContainerClosePacketD0Ev = __main_start + 0x0030f314;
_ZN31ServerboundContainerClosePacket6handleEP14PacketListener = __main_start + 0x0030f374;
_ZN31ServerboundContainerClosePacket4readEP15DataInputStream = __main_start + 0x0030f3c4;
_ZN31ServerboundContainerClosePacket5writeEP16DataOutputStream = __main_start + 0x0030f3f8;
_ZN30ServerboundCustomPayloadPacketD2Ev = __main_start + 0x0030f450;
_ZN30ServerboundCustomPayloadPacketD0Ev = __main_start + 0x0030f49c;
_ZN30ServerboundCustomPayloadPacket4readEP15DataInputStream = __main_start + 0x0030f52c;
_ZN30ServerboundCustomPayloadPacket5writeEP16DataOutputStream = __main_start + 0x0030f644;
_ZN30ServerboundCustomPayloadPacket6handleEP14PacketListener = __main_start + 0x0030f6a4;
_ZN25ServerboundInteractPacketD2Ev = __main_start + 0x0030f864;
_ZN25ServerboundInteractPacketD0Ev = __main_start + 0x0030f8a8;
_ZN25ServerboundInteractPacket4readEP15DataInputStream = __main_start + 0x0030f8cc;
_ZN25ServerboundInteractPacket5writeEP16DataOutputStream = __main_start + 0x0030f994;
_ZN25ServerboundInteractPacket6handleEP14PacketListener = __main_start + 0x0030fa60;
_ZN25ServerboundInteractPacket16getEstimatedSizeEv = __main_start + 0x0030fab0;
_ZN26ServerboundKeepAlivePacketD2Ev = __main_start + 0x0030fb20;
_ZN26ServerboundKeepAlivePacketD0Ev = __main_start + 0x0030fb48;
_ZN26ServerboundKeepAlivePacket6handleEP14PacketListener = __main_start + 0x0030fb6c;
_ZN26ServerboundKeepAlivePacket4readEP15DataInputStream = __main_start + 0x0030fbbc;
_ZN26ServerboundKeepAlivePacket5writeEP16DataOutputStream = __main_start + 0x0030fbe4;
_ZN27ServerboundMovePlayerPacket6handleEP14PacketListener = __main_start + 0x0030fc94;
_ZN27ServerboundMovePlayerPacket4readEP15DataInputStream = __main_start + 0x0030fce4;
_ZN27ServerboundMovePlayerPacket5writeEP16DataOutputStream = __main_start + 0x0030fd24;
_ZN27ServerboundMovePlayerPacket16getEstimatedSizeEv = __main_start + 0x0030fd44;
_ZN27ServerboundMovePlayerPacket16canBeInvalidatedEv = __main_start + 0x0030fd4c;
_ZN27ServerboundMovePlayerPacket15isInvalidatedByESt10shared_ptrI6PacketE = __main_start + 0x0030fd54;
_ZN27ServerboundMovePlayerPacket6PosRot4readEP15DataInputStream = __main_start + 0x0030fe80;
_ZN27ServerboundMovePlayerPacket6PosRot5writeEP16DataOutputStream = __main_start + 0x0030ff0c;
_ZN27ServerboundMovePlayerPacket6PosRot16getEstimatedSizeEv = __main_start + 0x0030ff98;
_ZN27ServerboundMovePlayerPacket3Pos4readEP15DataInputStream = __main_start + 0x00310050;
_ZN27ServerboundMovePlayerPacket3Pos5writeEP16DataOutputStream = __main_start + 0x003100b4;
_ZN27ServerboundMovePlayerPacket3Pos16getEstimatedSizeEv = __main_start + 0x00310118;
_ZN27ServerboundMovePlayerPacket3Rot4readEP15DataInputStream = __main_start + 0x003101c0;
_ZN27ServerboundMovePlayerPacket3Rot5writeEP16DataOutputStream = __main_start + 0x00310210;
_ZN27ServerboundMovePlayerPacket3Rot16getEstimatedSizeEv = __main_start + 0x00310260;
_ZN28ServerboundMoveVehiclePacket4readEP15DataInputStream = __main_start + 0x00310310;
_ZN28ServerboundMoveVehiclePacket5writeEP16DataOutputStream = __main_start + 0x00310394;
_ZN28ServerboundMoveVehiclePacket6handleEP14PacketListener = __main_start + 0x00310414;
_ZN27ServerboundPaddleBoatPacket4readEP15DataInputStream = __main_start + 0x0031050c;
_ZN27ServerboundPaddleBoatPacket5writeEP16DataOutputStream = __main_start + 0x0031055c;
_ZN27ServerboundPaddleBoatPacket6handleEP14PacketListener = __main_start + 0x003105a0;
_ZN32ServerboundPlayerAbilitiesPacket4readEP15DataInputStream = __main_start + 0x00310704;
_ZN32ServerboundPlayerAbilitiesPacket5writeEP16DataOutputStream = __main_start + 0x0031079c;
_ZN32ServerboundPlayerAbilitiesPacket6handleEP14PacketListener = __main_start + 0x00310864;
_ZN29ServerboundPlayerActionPacket4readEP15DataInputStream = __main_start + 0x00310970;
_ZN29ServerboundPlayerActionPacket5writeEP16DataOutputStream = __main_start + 0x003109e4;
_ZN29ServerboundPlayerActionPacket6handleEP14PacketListener = __main_start + 0x00310a58;
_ZN29ServerboundPlayerActionPacket16getEstimatedSizeEv = __main_start + 0x00310aa8;
_ZN30ServerboundPlayerCommandPacket4readEP15DataInputStream = __main_start + 0x00310bc4;
_ZN30ServerboundPlayerCommandPacket5writeEP16DataOutputStream = __main_start + 0x00310c10;
_ZN30ServerboundPlayerCommandPacket6handleEP14PacketListener = __main_start + 0x00310c58;
_ZN30ServerboundPlayerCommandPacket16getEstimatedSizeEv = __main_start + 0x00310ca8;
_ZN28ServerboundPlayerInputPacket4readEP15DataInputStream = __main_start + 0x00310d60;
_ZN28ServerboundPlayerInputPacket5writeEP16DataOutputStream = __main_start + 0x00310dc8;
_ZN28ServerboundPlayerInputPacket6handleEP14PacketListener = __main_start + 0x00310e30;
_ZN28ServerboundPlayerInputPacket16getEstimatedSizeEv = __main_start + 0x00310e80;
_ZN25ServerboundPreLoginPacket4readEP15DataInputStream = __main_start + 0x00310f48;
_ZN25ServerboundPreLoginPacket5writeEP16DataOutputStream = __main_start + 0x00311000;
_ZN25ServerboundPreLoginPacket6handleEP14PacketListener = __main_start + 0x0031103c;
_ZN25ServerboundPreLoginPacket16getEstimatedSizeEv = __main_start + 0x0031108c;
_ZN29ServerboundResourcePackPacketD2Ev = __main_start + 0x003110e0;
_ZN29ServerboundResourcePackPacketD0Ev = __main_start + 0x00311108;
_ZN29ServerboundResourcePackPacket4readEP15DataInputStream = __main_start + 0x0031112c;
_ZN29ServerboundResourcePackPacket5writeEP16DataOutputStream = __main_start + 0x0031115c;
_ZN29ServerboundResourcePackPacket6handleEP14PacketListener = __main_start + 0x00311174;
_ZN31ServerboundSetCarriedItemPacketD2Ev = __main_start + 0x003111f8;
_ZN31ServerboundSetCarriedItemPacketD0Ev = __main_start + 0x00311220;
_ZN31ServerboundSetCarriedItemPacket4readEP15DataInputStream = __main_start + 0x00311280;
_ZN31ServerboundSetCarriedItemPacket5writeEP16DataOutputStream = __main_start + 0x003112b4;
_ZN31ServerboundSetCarriedItemPacket6handleEP14PacketListener = __main_start + 0x003112cc;
_ZN36ServerboundSetCreativeModeSlotPacket6handleEP14PacketListener = __main_start + 0x00311410;
_ZN36ServerboundSetCreativeModeSlotPacket4readEP15DataInputStream = __main_start + 0x00311460;
_ZN36ServerboundSetCreativeModeSlotPacket5writeEP16DataOutputStream = __main_start + 0x003114c0;
_ZN36ServerboundSetCreativeModeSlotPacket16getEstimatedSizeEv = __main_start + 0x0031151c;
_ZN27ServerboundSignUpdatePacketD2Ev = __main_start + 0x0031157c;
_ZN27ServerboundSignUpdatePacketD0Ev = __main_start + 0x003115f4;
_ZN27ServerboundSignUpdatePacket4readEP15DataInputStream = __main_start + 0x003116e0;
_ZN27ServerboundSignUpdatePacket5writeEP16DataOutputStream = __main_start + 0x00311964;
_ZN27ServerboundSignUpdatePacket6handleEP14PacketListener = __main_start + 0x003119dc;
_ZN22ServerboundSwingPacket4readEP15DataInputStream = __main_start + 0x00311ac0;
_ZN22ServerboundSwingPacket5writeEP16DataOutputStream = __main_start + 0x00311af0;
_ZN22ServerboundSwingPacket6handleEP14PacketListener = __main_start + 0x00311b08;
_ZN33ServerboundTeleportToEntityPacketD2Ev = __main_start + 0x00311bd4;
_ZN33ServerboundTeleportToEntityPacketD0Ev = __main_start + 0x00311bfc;
_ZN33ServerboundTeleportToEntityPacket4readEP15DataInputStream = __main_start + 0x00311c20;
_ZN33ServerboundTeleportToEntityPacket5writeEP16DataOutputStream = __main_start + 0x00311c78;
_ZN33ServerboundTeleportToEntityPacket6handleEP14PacketListener = __main_start + 0x00311cc8;
_ZN26ServerboundUseItemOnPacket4readEP15DataInputStream = __main_start + 0x00311e2c;
_ZN26ServerboundUseItemOnPacket5writeEP16DataOutputStream = __main_start + 0x00311ecc;
_ZN26ServerboundUseItemOnPacket6handleEP14PacketListener = __main_start + 0x00311f68;
_ZN24ServerboundUseItemPacket4readEP15DataInputStream = __main_start + 0x00312064;
_ZN24ServerboundUseItemPacket5writeEP16DataOutputStream = __main_start + 0x00312098;
_ZN24ServerboundUseItemPacket6handleEP14PacketListener = __main_start + 0x003120b0;
_ZN24ServerboundUseItemPacket16getEstimatedSizeEv = __main_start + 0x00312100;
_ZN24ServerGamePacketListener20handleUpdateProgressESt10shared_ptrI20UpdateProgressPacketE = __main_start + 0x00312110;
_ZN24ServerGamePacketListener19handleTextureChangeESt10shared_ptrI19TextureChangePacketE = __main_start + 0x00312168;
_ZN24ServerGamePacketListener30handleTextureAndGeometryChangeESt10shared_ptrI30TextureAndGeometryChangePacketE = __main_start + 0x003121c0;
_ZN24ServerGamePacketListener34handleUpdateGameRuleProgressPacketESt10shared_ptrI28UpdateGameRuleProgressPacketE = __main_start + 0x00312218;
_ZN24ServerGamePacketListener8handleXZESt10shared_ptrI8XZPacketE = __main_start + 0x00312270;
_ZN24ServerGamePacketListener22handleScoreboardPacketESt10shared_ptrI16ScoreboardPacketE = __main_start + 0x003122c8;
_ZN24ServerGamePacketListener14handleGameModeESt10shared_ptrI14GameModePacketE = __main_start + 0x00312320;
_ZN24ServerGamePacketListener19handleMapSelectInfoESt10shared_ptrI19MapSelectInfoPacketE = __main_start + 0x00312378;
_ZN24ServerGamePacketListener17handlePlayerReadyESt10shared_ptrI17PlayerReadyPacketE = __main_start + 0x003123d0;
_ZN24ServerGamePacketListener13handlePowerupESt10shared_ptrI24ClientboundPowerupPacketE = __main_start + 0x00312480;
_ZN24ServerGamePacketListener21handleDamageIndicatorESt10shared_ptrI32ClientboundDamageIndicatorPacketE = __main_start + 0x003124d8;
_ZN24ServerGamePacketListener40handleMiniGamePlayerSettingsUpdatePacketESt10shared_ptrI39ClientboundMGPlayerSettingsUpdatePacketE = __main_start + 0x00312530;
_ZN24ServerGamePacketListener19handleClientCommandESt10shared_ptrI30ServerboundClientCommandPacketE = __main_start + 0x00312588;
_ZN24ServerGamePacketListener23handleClientInformationESt10shared_ptrI34ServerboundClientInformationPacketE = __main_start + 0x003125e0;
_ZN24ServerGamePacketListener26handleContainerButtonClickESt10shared_ptrI37ServerboundContainerButtonClickPacketE = __main_start + 0x00312638;
_ZN24ServerGamePacketListener20handleContainerClickESt10shared_ptrI31ServerboundContainerClickPacketE = __main_start + 0x00312690;
_ZN24ServerGamePacketListener14handleInteractESt10shared_ptrI25ServerboundInteractPacketE = __main_start + 0x003126e8;
_ZN24ServerGamePacketListener19handlePlayerCommandESt10shared_ptrI30ServerboundPlayerCommandPacketE = __main_start + 0x00312740;
_ZN24ServerGamePacketListener17handlePlayerInputESt10shared_ptrI28ServerboundPlayerInputPacketE = __main_start + 0x00312798;
_ZN24ServerGamePacketListener25handleSetCreativeModeSlotESt10shared_ptrI36ServerboundSetCreativeModeSlotPacketE = __main_start + 0x003127f0;
_ZN24ServerGamePacketListener15handleUseItemOnESt10shared_ptrI26ServerboundUseItemOnPacketE = __main_start + 0x00312848;
_ZN24ServerGamePacketListener13handleUseItemESt10shared_ptrI24ServerboundUseItemPacketE = __main_start + 0x003128a0;
_ZN24ServerGamePacketListener28handleTeleportToEntityPacketESt10shared_ptrI33ServerboundTeleportToEntityPacketE = __main_start + 0x003128f8;
_ZN27ServerSettingsChangedPacketD2Ev = __main_start + 0x00312b94;
_ZN27ServerSettingsChangedPacketD0Ev = __main_start + 0x00312bbc;
_ZN27ServerSettingsChangedPacket6handleEP14PacketListener = __main_start + 0x00312c6c;
_ZN27ServerSettingsChangedPacket4readEP15DataInputStream = __main_start + 0x00312cbc;
_ZN27ServerSettingsChangedPacket5writeEP16DataOutputStream = __main_start + 0x00312d04;
_ZN27ServerSettingsChangedPacket16getEstimatedSizeEv = __main_start + 0x00312d48;
_ZN15SharedConstants10staticCtorEv = __main_start + 0x00314ff8;
_ZN5Sheep10staticCtorEv = __main_start + 0x00315e10;
_ZN8ShortTag5writeEP10DataOutput = __main_start + 0x00317ab8;
_ZN8ShortTag4loadEP9DataInputi = __main_start + 0x00317ad0;
_ZN8ShortTag5getIdEv = __main_start + 0x00317b00;
_ZN8ShortTag8toStringEv = __main_start + 0x00317b08;
_ZN8ShortTag4copyEv = __main_start + 0x00317b60;
_ZN8ShortTag6equalsEP3Tag = __main_start + 0x00317b94;
_ZN8ShortTag9getAsLongEv = __main_start + 0x00317bd4;
_ZN8ShortTag8getAsIntEv = __main_start + 0x00317bdc;
_ZN8ShortTag10getAsShortEv = __main_start + 0x00317be4;
_ZN8ShortTag9getAsByteEv = __main_start + 0x00317bec;
_ZN8ShortTag11getAsDoubleEv = __main_start + 0x00317bf4;
_ZN8ShortTag10getAsFloatEv = __main_start + 0x00317c00;
_ZN10ShovelItem10staticCtorEv = __main_start + 0x00317d58;
_ZN7Shulker10staticCtorEv = __main_start + 0x0031818c;
_ZN24ServerGamePacketListenerD0Ev = __main_start + 0x003255ac;
_ZN24ServerGamePacketListener22isServerPacketListenerEv = __main_start + 0x003255d0;
_ZN16PlayerInfoPacketD2Ev = __main_start + 0x00325798;
_ZN16PlayerInfoPacketD0Ev = __main_start + 0x003257c0;
_ZN16PlayerInfoPacket11getPacketIdEv = __main_start + 0x003257e4;
_ZN17PlayerReadyPacket11getPacketIdEv = __main_start + 0x003257ec;
_ZN16ScoreboardPacket11getPacketIdEv = __main_start + 0x0032682c;
_ZN36ServerboundAcceptTeleportationPacketD2Ev = __main_start + 0x003268c4;
_ZN36ServerboundAcceptTeleportationPacketD0Ev = __main_start + 0x003268ec;
_ZN36ServerboundAcceptTeleportationPacket11getPacketIdEv = __main_start + 0x00326910;
_ZN33ServerboundChatAutoCompletePacket11getPacketIdEv = __main_start + 0x00326918;
_ZN21ServerboundChatPacket11getPacketIdEv = __main_start + 0x00326920;
_ZN30ServerboundClientCommandPacketD2Ev = __main_start + 0x00326928;
_ZN30ServerboundClientCommandPacketD0Ev = __main_start + 0x00326950;
_ZN30ServerboundClientCommandPacket11getPacketIdEv = __main_start + 0x00326974;
_ZN29ServerboundContainerAckPacket11getPacketIdEv = __main_start + 0x0032697c;
_ZN37ServerboundContainerButtonClickPacketD2Ev = __main_start + 0x00326984;
_ZN37ServerboundContainerButtonClickPacketD0Ev = __main_start + 0x003269ac;
_ZN37ServerboundContainerButtonClickPacket11getPacketIdEv = __main_start + 0x003269d0;
_ZN31ServerboundContainerClickPacket11getPacketIdEv = __main_start + 0x003269d8;
_ZN31ServerboundContainerClosePacket11getPacketIdEv = __main_start + 0x003269e0;
_ZN30ServerboundCustomPayloadPacket11getPacketIdEv = __main_start + 0x003269e8;
_ZN25ServerboundInteractPacket11getPacketIdEv = __main_start + 0x003269f0;
_ZN26ServerboundKeepAlivePacket11getPacketIdEv = __main_start + 0x003269f8;
_ZN27ServerboundMovePlayerPacketD0Ev = __main_start + 0x00326a00;
_ZN27ServerboundMovePlayerPacket11getPacketIdEv = __main_start + 0x00326a24;
_ZN27ServerboundMovePlayerPacket6PosRotD0Ev = __main_start + 0x00326a2c;
_ZN27ServerboundMovePlayerPacket6PosRot11getPacketIdEv = __main_start + 0x00326a50;
_ZN27ServerboundMovePlayerPacket3PosD0Ev = __main_start + 0x00326a58;
_ZN27ServerboundMovePlayerPacket3Pos11getPacketIdEv = __main_start + 0x00326a7c;
_ZN27ServerboundMovePlayerPacketD2Ev = __main_start + 0x00326a84;
_ZN27ServerboundMovePlayerPacket3RotD0Ev = __main_start + 0x00326aac;
_ZN27ServerboundMovePlayerPacket3Rot11getPacketIdEv = __main_start + 0x00326ad0;
_ZN28ServerboundMoveVehiclePacketD2Ev = __main_start + 0x00326ad8;
_ZN28ServerboundMoveVehiclePacketD0Ev = __main_start + 0x00326b00;
_ZN28ServerboundMoveVehiclePacket11getPacketIdEv = __main_start + 0x00326b24;
_ZN27ServerboundPaddleBoatPacketD2Ev = __main_start + 0x00326b2c;
_ZN27ServerboundPaddleBoatPacketD0Ev = __main_start + 0x00326b54;
_ZN27ServerboundPaddleBoatPacket11getPacketIdEv = __main_start + 0x00326b78;
_ZN32ServerboundPlayerAbilitiesPacketD2Ev = __main_start + 0x00326b80;
_ZN32ServerboundPlayerAbilitiesPacketD0Ev = __main_start + 0x00326ba8;
_ZN32ServerboundPlayerAbilitiesPacket11getPacketIdEv = __main_start + 0x00326bcc;
_ZN29ServerboundPlayerActionPacketD2Ev = __main_start + 0x00326bd4;
_ZN29ServerboundPlayerActionPacketD0Ev = __main_start + 0x00326bfc;
_ZN29ServerboundPlayerActionPacket11getPacketIdEv = __main_start + 0x00326c20;
_ZN30ServerboundPlayerCommandPacketD2Ev = __main_start + 0x00326c28;
_ZN30ServerboundPlayerCommandPacketD0Ev = __main_start + 0x00326c50;
_ZN30ServerboundPlayerCommandPacket11getPacketIdEv = __main_start + 0x00326c74;
_ZN28ServerboundPlayerInputPacketD2Ev = __main_start + 0x00326c7c;
_ZN28ServerboundPlayerInputPacketD0Ev = __main_start + 0x00326ca4;
_ZN28ServerboundPlayerInputPacket11getPacketIdEv = __main_start + 0x00326cc8;
_ZN25ServerboundPreLoginPacketD2Ev = __main_start + 0x00326cd0;
_ZN25ServerboundPreLoginPacketD0Ev = __main_start + 0x00326d14;
_ZN25ServerboundPreLoginPacket11getPacketIdEv = __main_start + 0x00326d38;
_ZN29ServerboundResourcePackPacket11getPacketIdEv = __main_start + 0x00326d40;
_ZN31ServerboundSetCarriedItemPacket11getPacketIdEv = __main_start + 0x00326d48;
_ZN36ServerboundSetCreativeModeSlotPacketD2Ev = __main_start + 0x00326d50;
_ZN36ServerboundSetCreativeModeSlotPacketD0Ev = __main_start + 0x00326d94;
_ZN36ServerboundSetCreativeModeSlotPacket11getPacketIdEv = __main_start + 0x00326db8;
_ZN27ServerboundSignUpdatePacket11getPacketIdEv = __main_start + 0x00326dc0;
_ZN22ServerboundSwingPacketD2Ev = __main_start + 0x00326dc8;
_ZN22ServerboundSwingPacketD0Ev = __main_start + 0x00326df0;
_ZN22ServerboundSwingPacket11getPacketIdEv = __main_start + 0x00326e14;
_ZN33ServerboundTeleportToEntityPacket11getPacketIdEv = __main_start + 0x00326e1c;
_ZN26ServerboundUseItemOnPacketD2Ev = __main_start + 0x00326e24;
_ZN26ServerboundUseItemOnPacketD0Ev = __main_start + 0x00326e4c;
_ZN26ServerboundUseItemOnPacket11getPacketIdEv = __main_start + 0x00326e70;
_ZN24ServerboundUseItemPacketD2Ev = __main_start + 0x00326e78;
_ZN24ServerboundUseItemPacketD0Ev = __main_start + 0x00326ea0;
_ZN24ServerboundUseItemPacket11getPacketIdEv = __main_start + 0x00326ec4;
_ZN27ServerSettingsChangedPacket11getPacketIdEv = __main_start + 0x00326ef0;
_ZN8ShortTagD0Ev = __main_start + 0x00326fdc;
_ZN13SlabBlockItem13SlabBlockItemEP5BlockP13HalfSlabBlockP13HalfSlabBlock = __main_start + 0x00343de0;
_ZN5Slime10staticCtorEv = __main_start + 0x00344748;
_ZN7SnowMan10staticCtorEv = __main_start + 0x0034d61c;
_ZN11SoundEvents10staticCtorEv = __main_start + 0x0034f2ec;
_ZN9SoundType10StaticCtorEv = __main_start + 0x00359924;
_ZN17SparseDataStorage10staticCtorEv = __main_start + 0x00359e04;
_Z20EnterCriticalSectionPN2nn2os9MutexTypeE = __main_start + 0x0035a6e8;
_ZN17SparseDataStorage4tickEv = __main_start + 0x0035b3b8;
_ZN18SparseLightStorage10staticCtorEv = __main_start + 0x0035bb50;
_ZN18SparseLightStorage4tickEv = __main_start + 0x0035c6dc;
_ZN12SpawnEggItem9fjGetTypeERK12not_null_ptrI12ItemInstanceE = __main_start + 0x0035e57c;
_ZN18SpellcasterIllager10staticCtorEv = __main_start + 0x0035eb90;
_ZN6Spider10staticCtorEv = __main_start + 0x0035f2f4;
_ZN13SpruceFeature10staticCtorEv = __main_start + 0x0036145c;
_ZN4Vec37newTempEddd = __main_start + 0x00362784;
_ZN5Stats10staticCtorEv = __main_start + 0x003666d8;
_ZN5Stats4initEv = __main_start + 0x00368744;
_Z17wstringtofilenameRKNSt3__112basic_stringIwNS_11char_traitsIwEENS_9allocatorIwEEEERA256_c = __main_start + 0x0036d394;
_Z17filenametowstringPKc = __main_start + 0x0036d52c;
_ZN3TagC1Ev = __main_start + 0x0036e304;
_ZN9StringTag5writeEP10DataOutput = __main_start + 0x0036e35c;
_ZN9StringTag4loadEP9DataInputi = __main_start + 0x0036e374;
_ZN9StringTag5getIdEv = __main_start + 0x0036e418;
_ZN9StringTag8toStringEv = __main_start + 0x0036e420;
_ZN9StringTag4copyEv = __main_start + 0x0036e42c;
_ZNK9StringTag7isEmptyEv = __main_start + 0x0036e460;
_ZN9StringTag6equalsEP3Tag = __main_start + 0x0036e480;
_ZN3Tag6equalsEPS_ = __main_start + 0x0036e578;
_ZN9StringTag11getAsStringEv = __main_start + 0x0036e5c8;
_ZN16StrongholdPieces10staticCtorEv = __main_start + 0x0036fb84;
_ZN18StructureFeatureIO10staticCtorEv = __main_start + 0x003796b0;
_ZN16StructureManager10staticCtorEv = __main_start + 0x0037a0fc;
_ZN6System22processTimeInMilliSecsEv = __main_start + 0x0037d588;
_ZN16SwampTreeFeature10staticCtorEv = __main_start + 0x003807d8;
_ZN6System11processTimeEN6System16ETimeGranularityE = __main_start + 0x0038416c;
_ZN6System20processTimeInSecondsEv = __main_start + 0x003841ec;
_ZN6System21processTimeInNanoSecsEv = __main_start + 0x00384220;
_ZN3Tag5printERKNSt3__112basic_stringIwNS0_11char_traitsIwEENS0_9allocatorIwEEEEPcRNS0_13basic_ostreamIwS3_EE = __main_start + 0x0038436c;
_ZN3Tag18stripEmptyChildrenEv = __main_start + 0x0038460c;
_ZNK3Tag7isEmptyEv = __main_start + 0x00384610;
_ZN3Tag11getAsStringEv = __main_start + 0x00384618;
_ZN13TamableAnimal10staticCtorEv = __main_start + 0x0038605c;
_ZN30TextureAndGeometryChangePacket4readEP15DataInputStream = __main_start + 0x00388898;
_ZN30TextureAndGeometryChangePacket5writeEP16DataOutputStream = __main_start + 0x00388964;
_ZN30TextureAndGeometryChangePacket6handleEP14PacketListener = __main_start + 0x003889b4;
_ZN30TextureAndGeometryChangePacket16getEstimatedSizeEv = __main_start + 0x00388a04;
_ZN24TextureAndGeometryPacketD2Ev = __main_start + 0x00388a90;
_ZN24TextureAndGeometryPacketD0Ev = __main_start + 0x00388ad4;
_ZN24TextureAndGeometryPacket6handleEP14PacketListener = __main_start + 0x00389338;
_ZN24TextureAndGeometryPacket4readEP15DataInputStream = __main_start + 0x00389388;
_ZN24TextureAndGeometryPacket5writeEP16DataOutputStream = __main_start + 0x0038970c;
_ZN24TextureAndGeometryPacket16getEstimatedSizeEv = __main_start + 0x003899dc;
_ZN19TextureChangePacket4readEP15DataInputStream = __main_start + 0x00389a98;
_ZN19TextureChangePacket5writeEP16DataOutputStream = __main_start + 0x00389b68;
_ZN19TextureChangePacket6handleEP14PacketListener = __main_start + 0x00389bb8;
_ZN19TextureChangePacket16getEstimatedSizeEv = __main_start + 0x00389c08;
_ZN13TexturePacketD2Ev = __main_start + 0x00389c84;
_ZN13TexturePacketD0Ev = __main_start + 0x00389cc8;
_ZN13TexturePacket6handleEP14PacketListener = __main_start + 0x00389d58;
_ZN13TexturePacket4readEP15DataInputStream = __main_start + 0x00389da8;
_ZN13TexturePacket5writeEP16DataOutputStream = __main_start + 0x00389eb0;
_ZN13TexturePacket16getEstimatedSizeEv = __main_start + 0x00389f28;
_ZN19TheEndGatewayEntity10isSpawningEv = __main_start + 0x0038b290;
_ZN19TheEndGatewayEntity13isCoolingDownEv = __main_start + 0x0038b2a0;
_ZN19TheEndGatewayEntity15getSpawnPercentEf = __main_start + 0x0038b754;
_ZN19TheEndGatewayEntity18getCooldownPercentEf = __main_start + 0x0038b778;
_ZN16ThrownEnderpearl5onHitEPK9HitResult = __main_start + 0x00390d60;
_ZN12ThrownPotion10staticCtorEv = __main_start + 0x00391710;
_ZN15TintedBlockItemC1EP5Blockb = __main_start + 0x00392b84;
_ZN13TippableArrow10staticCtorEv = __main_start + 0x00392d04;
_ZN15TradeItemPacket6handleEP14PacketListener = __main_start + 0x003970bc;
_ZN15TradeItemPacket4readEP15DataInputStream = __main_start + 0x0039710c;
_ZN15TradeItemPacket5writeEP16DataOutputStream = __main_start + 0x00397154;
_ZN15TradeItemPacket16getEstimatedSizeEv = __main_start + 0x00397198;
_ZN11TreeFeature10staticCtorEv = __main_start + 0x0039887c;
_ZN28UpdateGameRuleProgressPacket4readEP15DataInputStream = __main_start + 0x0039b6d8;
_ZN28UpdateGameRuleProgressPacket5writeEP16DataOutputStream = __main_start + 0x0039b840;
_ZN28UpdateGameRuleProgressPacket6handleEP14PacketListener = __main_start + 0x0039b8e0;
_ZN28UpdateGameRuleProgressPacket16getEstimatedSizeEv = __main_start + 0x0039b930;
_ZN20UpdateProgressPacket4readEP15DataInputStream = __main_start + 0x0039b9c8;
_ZN20UpdateProgressPacket5writeEP16DataOutputStream = __main_start + 0x0039b9fc;
_ZN20UpdateProgressPacket6handleEP14PacketListener = __main_start + 0x0039ba14;
_ZN20UpdateProgressPacket16getEstimatedSizeEv = __main_start + 0x0039ba64;
_ZN4phys4Vec222CreateNewThreadStorageEv = __main_start + 0x0039bb50;
_ZN4phys4Vec27newTempEff = __main_start + 0x0039bc28;
_ZN4Vec322CreateNewThreadStorageEv = __main_start + 0x0039bcec;
_ZN4Vec39resetPoolEv = __main_start + 0x0039bdfc;
_ZN4Vec33setEddd = __main_start + 0x0039be00;
_ZN4Vec310distanceToEP4AABB = __main_start + 0x0039c350;
_ZN5Vec3iC1Eddd = __main_start + 0x0039c628;
_ZN3Vex10staticCtorEv = __main_start + 0x0039c958;
_ZN14VillageFeature10staticCtorEv = __main_start + 0x003a0d4c;
_ZN13VillagePieces6Smithy10staticCtorEv = __main_start + 0x003ac270;
_ZN8Villager10staticCtorEv = __main_start + 0x003b1068;
_ZN13VillagerGolem10staticCtorEv = __main_start + 0x003b576c;
_ZN10VotePacket4readEP15DataInputStream = __main_start + 0x003bb280;
_ZN10VotePacket5writeEP16DataOutputStream = __main_start + 0x003bb2f0;
_ZN10VotePacket6handleEP14PacketListener = __main_start + 0x003bb35c;
_ZN10VotePacket16getEstimatedSizeEv = __main_start + 0x003bb3ac;
_ZN5Witch10staticCtorEv = __main_start + 0x003c15cc;
_ZN10WitherBoss10staticCtorEv = __main_start + 0x003c26e8;
_ZN11WitherSkull10staticCtorEv = __main_start + 0x003c7f18;
_ZN4Wolf10staticCtorEv = __main_start + 0x003c8960;
_ZN22WoodlandMansionFeature10staticCtorEv = __main_start + 0x003cb2a4;
_ZN27fjGetSuitableRandomRotationER6RandomP9LevelDataii = __main_start + 0x003cbb58;
_ZN11WorldBorderC1EP5Level = __main_start + 0x003d28a8;
_ZN11WorldBorderD2Ev = __main_start + 0x003d2900;
_ZN11WorldBorderD0Ev = __main_start + 0x003d294c;
_ZN11WorldBorder14isWithinBoundsERK8BlockPos = __main_start + 0x003d2970;
_ZN11WorldBorder7getMinXEv = __main_start + 0x003d2a18;
_ZN11WorldBorder7getMaxXEv = __main_start + 0x003d2a74;
_ZN11WorldBorder7getMinZEv = __main_start + 0x003d2ad0;
_ZN11WorldBorder7getMaxZEv = __main_start + 0x003d2b2c;
_ZN11WorldBorder14isWithinBoundsEP4AABB = __main_start + 0x003d2b88;
_ZN11WorldBorder19getDistanceToBorderESt10shared_ptrI6EntityE = __main_start + 0x003d2c04;
_ZN11WorldBorder19getDistanceToBorderEdd = __main_start + 0x003d2c14;
_ZN11WorldBorder9getStatusEv = __main_start + 0x003d2ca8;
_ZN11WorldBorder7getSizeEv = __main_start + 0x003d2cd8;
_ZN11WorldBorder10getCenterXEv = __main_start + 0x003d2d5c;
_ZN11WorldBorder10getCenterZEv = __main_start + 0x003d2d64;
_ZN11WorldBorder12getListenersEv = __main_start + 0x003d2de0;
_ZN11WorldBorder7setSizeEd = __main_start + 0x003d2de8;
_ZN11WorldBorder11addListenerEP20BorderChangeListener = __main_start + 0x003d2eec;
_ZN11WorldBorder17getDamageSafeZoneEv = __main_start + 0x003d2f3c;
_ZN11WorldBorder17getDamagePerBlockEv = __main_start + 0x003d2fac;
_ZN8XZPacketD2Ev = __main_start + 0x003d3cc0;
_ZN8XZPacketD0Ev = __main_start + 0x003d3ce8;
_ZN8XZPacketC2Ev = __main_start + 0x003d3d0c;
_ZN8XZPacketC2Ecii = __main_start + 0x003d3d48;
_ZN8XZPacket6handleEP14PacketListener = __main_start + 0x003d3d98;
_ZN8XZPacket4readEP15DataInputStream = __main_start + 0x003d3de8;
_ZN8XZPacket5writeEP16DataOutputStream = __main_start + 0x003d3e44;
_ZN8XZPacket16getEstimatedSizeEv = __main_start + 0x003d3e9c;
_ZN6Zombie10staticCtorEv = __main_start + 0x003d3ef0;
_ZN14ZombieVillager10staticCtorEv = __main_start + 0x003d69d4;
_ZN3TagD0Ev = __main_start + 0x003d7e8c;
_ZN9StringTagD1Ev = __main_start + 0x003d8b2c;
_ZN9StringTagD0Ev = __main_start + 0x003d8b60;
_ZN30TextureAndGeometryChangePacketD2Ev = __main_start + 0x003d915c;
_ZN30TextureAndGeometryChangePacketD0Ev = __main_start + 0x003d91a0;
_ZN30TextureAndGeometryChangePacket11getPacketIdEv = __main_start + 0x003d91c4;
_ZN24TextureAndGeometryPacket11getPacketIdEv = __main_start + 0x003d91cc;
_ZN19TextureChangePacketD2Ev = __main_start + 0x003d91d4;
_ZN19TextureChangePacketD0Ev = __main_start + 0x003d9218;
_ZN19TextureChangePacket11getPacketIdEv = __main_start + 0x003d923c;
_ZN13TexturePacket11getPacketIdEv = __main_start + 0x003d9244;
_ZN15TradeItemPacketD2Ev = __main_start + 0x003d966c;
_ZN15TradeItemPacketD0Ev = __main_start + 0x003d9694;
_ZN15TradeItemPacket11getPacketIdEv = __main_start + 0x003d96b8;
_ZN28UpdateGameRuleProgressPacketD2Ev = __main_start + 0x003d9854;
_ZN28UpdateGameRuleProgressPacketD0Ev = __main_start + 0x003d9898;
_ZN28UpdateGameRuleProgressPacket11getPacketIdEv = __main_start + 0x003d98bc;
_ZN20UpdateProgressPacketD2Ev = __main_start + 0x003d98c4;
_ZN20UpdateProgressPacketD0Ev = __main_start + 0x003d98ec;
_ZN20UpdateProgressPacket11getPacketIdEv = __main_start + 0x003d9910;
_ZN10VotePacketD2Ev = __main_start + 0x003d9fac;
_ZN10VotePacketD0Ev = __main_start + 0x003d9fd4;
_ZN10VotePacket11getPacketIdEv = __main_start + 0x003d9ff8;
_ZN8XZPacket11getPacketIdEv = __main_start + 0x003da714;
_ZNSt6vectorIP20BorderChangeListenerSaIS1_EE9push_backERKS1_ = __main_start + 0x003f17f8;
_ZN11SoundEngineC1Ev = __main_start + 0x003f35f4;
_ZN11ColourTable10staticCtorEv = __main_start + 0x003faa70;
_ZN10DLCManagerC1Ev = __main_start + 0x003fca24;
_ZNSt3__1plIcNS_11char_traitsIcEENS_9allocatorIcEEEENS_12basic_stringIT_T0_T1_EERKS9_PKS6_ = __main_start + 0x0040d280;
_ZN3fui13setScreenSizeEff = __main_start + 0x004883d8;
_ZN14MasterGameMode16BlockDestroyedAtERK8BlockPos = __main_start + 0x00495028;
_ZN20ClientMasterGameModeC1Ev = __main_start + 0x00497a68;
_ZN11MiniGameDef21GetCustomGameModeByIdE11EMiniGameIdb = __main_start + 0x004992d4;
_ZNK20CommonMasterGameMode15GetNextGameModeEv = __main_start + 0x004992e8;
_ZN20ClientMasterGameMode13IsPlayerReadyEj = __main_start + 0x00499968;
_ZNK20ClientMasterGameMode16IsWaitingToStartEv = __main_start + 0x0049a230;
_ZNK20ClientMasterGameMode15IsRoundStartingEv = __main_start + 0x0049a240;
_ZNK20ClientMasterGameMode16IsInScoringStateEv = __main_start + 0x0049a280;
_ZN20ClientMasterGameMode21isWaitingToTransitionEv = __main_start + 0x0049af9c;
_ZN20ClientMasterGameMode13popTransitionEv = __main_start + 0x0049b014;
_ZN19_LoadingInputParams21_LoadingInputParams_2Ev = __main_start + 0x0049bca0;
_ZN19GameModeConstraints14isInputAllowedEi = __main_start + 0x004a27b4;
_ZN15GhostController11GhostRecordD2Ev = __main_start + 0x004aadd0;
_ZN15GhostControllerD2Ev = __main_start + 0x004ab5bc;
_ZN15GhostController4tickEv = __main_start + 0x004abe64;
_ZN15GhostController12canBeDeletedEv = __main_start + 0x004ac064;
_ZN14MasterGameMode10StaticCtorEv = __main_start + 0x004b0bb0;
_ZN11MiniGameDef10StaticCtorEv = __main_start + 0x004c3858;
_ZN11MiniGameDefC1E11EMiniGameId = __main_start + 0x004c3ac8;
_ZN11MiniGameDef15LockedInventoryEv = __main_start + 0x004c917c;
_ZNK11MiniGameDef8CanCraftEv = __main_start + 0x004ca29c;
_ZN14MiniGameMedals10staticCtorEv = __main_start + 0x004cd854;
_ZN36CollisionExceptionGameRuleDefinition17ShouldCollideWithEP5Block = __main_start + 0x004d8c74;
_ZN23NamedAreaRuleDefinition7getAreaEv = __main_start + 0x004ffea8;
_ZN15GameRuleManager25getLevelGenerationOptionsEv = __main_start + 0x005079cc;
_ZN22LevelGenerationOptions20getRequiredGameRulesEv = __main_start + 0x00508c70;
_ZN12LevelRuleset11getRuleTypeEv = __main_start + 0x0050fd60;
_ZN12LevelRuleset17ShouldCollideWithEP5Block = __main_start + 0x005114a8;
_ZN14InfoBarManager19StartTimingCategoryENS_15eTimingCagegoryE = __main_start + 0x005149ec;
_ZN14InfoBarManager17EndTimingCategoryENS_15eTimingCagegoryE = __main_start + 0x005149f0;
_ZN19CGameNetworkManager10InitialiseEv = __main_start + 0x00515370;
_ZN19CGameNetworkManager6DoWorkEv = __main_start + 0x00515464;
_ZN19CGameNetworkManager6IsHostEv = __main_start + 0x00515580;
_ZN19CGameNetworkManager14GetPlayerCountEv = __main_start + 0x005165b8;
_ZN19CGameNetworkManager11IsLocalGameEv = __main_start + 0x005165d0;
_ZN19CGameNetworkManager12SetLocalGameEb = __main_start + 0x005167a0;
_ZN19ConsoleUIController19RequestErrorMessageEiiPijjPFiPviN10C4JStorage14EMessageResultEES1_Pwb = __main_start + 0x00516f30;
_ZN19ConsoleUIController14IsSceneInStackEi8EUIScene = __main_start + 0x00517b00;
_ZN19ConsoleUIController15NavigateToSceneEi8EUIScenePv8EUILayer8EUIGroup = __main_start + 0x00517ea4;
_ZN19ConsoleUIController4tickEv = __main_start + 0x00519300;
_ZN19ConsoleUIController6renderEv = __main_start + 0x005195d0;
_ZN19ConsoleUIController16GetMenuDisplayedEi = __main_start + 0x0051b064;
_ZN8Tutorial10staticCtorEv = __main_start + 0x00524554;
_ZN19ConsoleUIController20IsPauseMenuDisplayedEi = __main_start + 0x00530174;
_ZN8Tutorial9useItemOnE12not_null_ptrI12ItemInstanceEb = __main_start + 0x00530968;
_ZN8Tutorial8onLookAtEPK10BlockState = __main_start + 0x00531314;
_ZN8Tutorial13onLookAtSkullEP5LevelRK8BlockPosPK10BlockState = __main_start + 0x005313e0;
_ZN8Tutorial16onGameModeChangeE18eTutorial_GameMode = __main_start + 0x005317e0;
_ZN19ConsoleUIController9PlayUISFXEPK10SoundEvent = __main_start + 0x0053546c;
_ZN19ConsoleUIController4initEii = __main_start + 0x00553380;
_ZN19ConsoleUIController7preInitEii = __main_start + 0x005533ec;
_ZN19ConsoleUIController8postInitEv = __main_start + 0x00553408;
_ZN19ConsoleUIController9SetupFontEv = __main_start + 0x00553bd0;
_ZN19ConsoleUIController9loadSkinsEv = __main_start + 0x00553e84;
_ZN19ConsoleUIController18getCleanupOnReloadEv = __main_start + 0x00554ab8;
_ZN19ConsoleUIController16SetMenuDisplayedEib = __main_start + 0x005576c0;
_ZN7UIGroup15NavigateToSceneEi8EUIScenePv8EUILayer = __main_start + 0x00557898;
_ZN19ConsoleUIController18CheckMenuDisplayedEv = __main_start + 0x005581d0;
_ZN19ConsoleUIController10GetHotBarXEj = __main_start + 0x00558a90;
_ZN19ConsoleUIController10GetHotBarYEj = __main_start + 0x00558b3c;
_ZN19ConsoleUIController14GetHotBarWidthEj = __main_start + 0x00558be8;
_ZN19ConsoleUIController15GetHotBarHeightEj = __main_start + 0x00558c94;
_ZN19ConsoleUIController21GetQuickSelectVisibleEj = __main_start + 0x00558d40;
_ZN19ConsoleUIController21HideAllGameUIElementsEv = __main_start + 0x005595d4;
_ZN19ConsoleUIController25ShowOtherPlayersBaseSceneEjb = __main_start + 0x0055961c;
_ZN19ConsoleUIController14ShowTrialTimerEb = __main_start + 0x00559620;
_ZN19ConsoleUIController16UpdateTrialTimerEj = __main_start + 0x0055966c;
_ZN19ConsoleUIController26GetAchievementToastShowingEi = __main_start + 0x00559d30;
_ZN19ConsoleUIController31GetHoldToShowAchievementsActiveEb = __main_start + 0x00559d60;
_ZN19ConsoleUIController22GetHoldActionCancelledEi = __main_start + 0x00559d90;
_ZN20UIScene_CreativeMenu10staticCtorEv = __main_start + 0x00577878;
_ZN13CMinecraftApp17GetGameHostOptionE15eGameHostOption = __main_start + 0x005bdbdc;
_ZN13CMinecraftApp19GetLocalPlayerCountEv = __main_start + 0x005be004;
_ZN20ClientPacketListener4sendESt10shared_ptrI6PacketE = __main_start + 0x005bf198;
_ZN12GameSettings15GetGameSettingsEi12eGameSetting = __main_start + 0x005c66d4;
_ZN13CMinecraftApp17SetGameHostOptionE15eGameHostOptionj = __main_start + 0x005c9564;
_ZN13CMinecraftApp17GetGameHostOptionEj15eGameHostOption = __main_start + 0x005c9584;
_ZN24UIScene_LeaderboardsMenu10staticCtorEv = __main_start + 0x005cf94c;
_ZN13CMinecraftApp14GetGameStartedEv = __main_start + 0x005d0808;
_ZN12GameSettings15SetGameSettingsEi12eGameSettingh = __main_start + 0x005d3bfc;
_ZN20CConsoleMinecraftApp19GetCommerceInstanceEv = __main_start + 0x005d4750;
_ZN20CConsoleMinecraftApp8ExitGameEv = __main_start + 0x005dafc0;
_ZN20CConsoleMinecraftApp20ReleaseSaveThumbnailEv = __main_start + 0x005dafc4;
_ZN12GameSettings24ApplyGameSettingsChangedEi = __main_start + 0x005db06c;
_ZN13CMinecraftApp20SetAutosaveTimerTimeEv = __main_start + 0x005db754;
_ZN17UIScene_PauseMenu19SaveWorldThreadProcEPv = __main_start + 0x005e1018;
_ZN13CMinecraftApp22GetChangingSessionTypeEv = __main_start + 0x005e11a0;
_ZN12GameSettings21SetDefaultGameOptionsEPN10C4JStorage15PROFILESETTINGSEib = __main_start + 0x005e49f4;
_ZN13CMinecraftApp21IsConsoleChatCensoredEv = __main_start + 0x005e5418;
_ZN20CConsoleMinecraftApp22SetRichPresenceContextEii = __main_start + 0x005f099c;
_Z11CreateFileAPKcjjPvjji = __main_start + 0x005f5a08;
_Z12GetLastErrorv = __main_start + 0x005f5ba0;
_Z11GetFileSizeiPj = __main_start + 0x005f5ba8;
_Z8ReadFileiPvjPjP11_OVERLAPPED = __main_start + 0x005f5be8;
_ZN20CConsoleMinecraftApp14FatalLoadErrorEPKwz = __main_start + 0x005f5c90;
_Z11CloseHandlei = __main_start + 0x005f5d2c;
_ZN13CMinecraftAppC2Ev = __main_start + 0x005f7b1c;
_ZN13CMinecraftApp15SetBanListCheckEii = __main_start + 0x005f8054;
_Z25InitializeCriticalSectionPN2nn2os9MutexTypeE = __main_start + 0x005f8064;
_ZN13CMinecraftApp21LocaleAndLanguageInitEv = __main_start + 0x005f8098;
_ZN13CMinecraftApp12GetXuiActionEi = __main_start + 0x005fabdc;
_ZN13CMinecraftApp17SetActionInternalEi10eXuiActionPv = __main_start + 0x005fabe8;
_ZN13CMinecraftApp10StaticCtorEv = __main_start + 0x005faf28;
_ZN13CMinecraftApp11IsAppPausedEv = __main_start + 0x005faf2c;
_ZN13CMinecraftApp12SetAppPausedEb = __main_start + 0x005fafb0;
_ZN13CMinecraftApp17LoadInventoryMenuEiN3std10shared_ptrI11LocalPlayerEEb = __main_start + 0x005fb374;
_ZN13CMinecraftApp16LoadCreativeMenuEiN3std10shared_ptrI11LocalPlayerEEb = __main_start + 0x005fb444;
_ZN13CMinecraftApp19LoadCrafting2x2MenuEiN3std10shared_ptrI11LocalPlayerEE = __main_start + 0x005fb50c;
_ZN13CMinecraftApp11IsUUIDLocalERKSt12basic_stringIwSt11char_traitsIwESt9allocatorIwEE = __main_start + 0x005fc544;
_ZN13CMinecraftApp16InitGameSettingsEv = __main_start + 0x005fc660;
_ZN12GameSettings16InitGameSettingsEv = __main_start + 0x005fc674;
_ZN13CMinecraftApp21SetDefaultHostOptionsEv = __main_start + 0x005fc78c;
_ZN13CMinecraftApp16HandleXuiActionsEv = __main_start + 0x005fc864;
_ZN13CMinecraftApp18GetGlobalXuiActionEv = __main_start + 0x005feec4;
_ZN13CMinecraftApp18SetGlobalXuiActionE10eXuiAction = __main_start + 0x005feecc;
_ZN13CMinecraftApp22UpsellReturnedCallbackEPv11eUpsellType15eUpsellResponsei = __main_start + 0x00600d88;
_ZN13CMinecraftApp8InitTimeEv = __main_start + 0x006019ec;
_Z25QueryPerformanceFrequencyP14_LARGE_INTEGER = __main_start + 0x00601a34;
_Z23QueryPerformanceCounterP14_LARGE_INTEGER = __main_start + 0x00601a48;
_ZN13CMinecraftApp10UpdateTimeEv = __main_start + 0x00601a80;
_ZN13CMinecraftApp15StoreLaunchDataEv = __main_start + 0x00602054;
_ZN13CMinecraftApp8ExitGameEv = __main_start + 0x00602058;
_ZN13CMinecraftApp14FatalLoadErrorEPKwz = __main_start + 0x006021a0;
_ZN13CMinecraftApp14InitialiseTipsEv = __main_start + 0x006022b0;
_ZN13CMinecraftApp20loadDefaultGameRulesEv = __main_start + 0x00603850;
_ZN13CMinecraftApp25getLevelGenerationOptionsEv = __main_start + 0x00603868;
_ZN13CMinecraftApp17ShouldCollideWithEP5Block = __main_start + 0x00603870;
_ZN13CMinecraftApp28GetReallyChangingSessionTypeEv = __main_start + 0x00605ac4;
_ZN13CMinecraftApp16TickOpacityTimerEi = __main_start + 0x00605ae8;
_ZN13CMinecraftApp22UpdateTrialPausedTimerEv = __main_start + 0x00605b54;
_ZN13CMinecraftApp15GetBanListCheckEi = __main_start + 0x00605b68;
_ZN13CMinecraftApp24GetTMSGlobalFileListReadEv = __main_start + 0x00605bcc;
_ZN13CMinecraftApp17GetTMSDLCInfoReadEv = __main_start + 0x00605bd4;
_ZN13CMinecraftApp19GetTMSXUIDsFileReadEv = __main_start + 0x00605bdc;
_ZN13CMinecraftApp14GetFileFromTPDE12eTPDFileTypePhjPS1_Pj = __main_start + 0x00605bec;
_ZN13CMinecraftApp20GetFirstMiniGameTypeEv = __main_start + 0x00605bf8;
_ZN9CustomSetEv = __main_start + 0x00605c4c;
malloc = __main_start + 0x00605c94;
free = __main_start + 0x00605d1c;
_ZN9CustomSet4findERK8ChunkPos = __main_start + 0x00605d38;
_ZN9CustomSet6insertERK8ChunkPos = __main_start + 0x00605db4;
_ZN9CustomSet6resizeEv = __main_start + 0x00605e54;
realloc = __main_start + 0x00605ee4;
_ZN12GameSettings18SetDefaultControlsEPN10C4JStorage15PROFILESETTINGSEib = __main_start + 0x00605f18;
_ZN12GameSettings28ClearGameSettingsChangedFlagEi = __main_start + 0x00606f94;
j_InitializeCriticalSection = __main_start + 0x00607fa0;
_Z16CreateDirectoryAPKcPv = __main_start + 0x00608024;
_Z18GetFileAttributesAPKc = __main_start + 0x006081f8;
_Z9MoveFileAPKcS0_ = __main_start + 0x00608360;
_Z14FindFirstFileAPKcP17_WIN32_FIND_DATAA = __main_start + 0x0060851c;
_Z13FindNextFileAiP17_WIN32_FIND_DATAA = __main_start + 0x00608548;
_ZN11TlsSetValueEjPv = __main_start + 0x006086b0;
_ZN13CMinecraftAppD2Ev = __main_start + 0x0060895c;
_ZN20CConsoleMinecraftAppC1Ev = __main_start + 0x00608a34;
_ZN20CConsoleMinecraftApp15StoreLaunchDataEv = __main_start + 0x00608ccc;
_ZN20CConsoleMinecraftApp20CaptureSaveThumbnailEv = __main_start + 0x00608d00;
_ZN20CConsoleMinecraftApp16GetSaveThumbnailEPPhPj = __main_start + 0x00608d20;
_ZN20CConsoleMinecraftApp13GetScreenshotEiPPhPj = __main_start + 0x00608e44;
_ZN20CConsoleMinecraftApp20GetLocalTMSFileIndexEPwb18eFileExtensionType = __main_start + 0x00608e48;
_ZN20CConsoleMinecraftApp16LoadLocalTMSFileEPw = __main_start + 0x00608e50;
_ZN20CConsoleMinecraftApp16LoadLocalTMSFileEPw18eFileExtensionType = __main_start + 0x00608e58;
_ZN20CConsoleMinecraftApp17FreeLocalTMSFilesE12eTMSFileType = __main_start + 0x00608e60;
_ZN20CConsoleMinecraftApp24TemporaryCreateGameStartEv = __main_start + 0x00608e64;
_ZN20CConsoleMinecraftApp12CommerceInitEv = __main_start + 0x00608e68;
_ZN20CConsoleMinecraftApp27Callback_SaveGameIncompleteEPvN10C4JStorage19ESaveIncompleteTypeE = __main_start + 0x00608f04;
_ZN7MemSectEi = __main_start + 0x00609ed0;
calloc = __main_start + 0x0060a234;
j_free = __main_start + 0x0060a274;
aligned_alloc = __main_start + 0x0060a294;
nninitStartup = __main_start + 0x0060a2a8;
nnMain = __main_start + 0x0060a3e4;
_ZN11ArchiveFile11_readHeaderEP15DataInputStream = __main_start + 0x0060e95c;
_ZN11ArchiveFileC1E4File = __main_start + 0x0060ee08;
_ZN13BufferBuilder5beginEv = __main_start + 0x00610924;
_ZN13BufferBuilder8vertexUVEfffff = __main_start + 0x00610984;
_ZN13BufferBuilder3endEv = __main_start + 0x006109d8;
_ZN13BufferBuilder5beginEi = __main_start + 0x00610e50;
_ZN19BlockEntityRenderer11bindTextureEP16ResourceLocation = __main_start + 0x00611628;
_ZN14BeaconRenderer16renderBeaconBeamEddddddii15arrayWithLengthIKfEdd = __main_start + 0x00612ce4;
_ZN13BufferBuilder5colorEffff = __main_start + 0x006134b8;
_ZN11BlockColors13createDefaultEv = __main_start + 0x00614d1c;
_ZN27BlockEntityRenderDispatcher10staticCtorEv = __main_start + 0x00615d0c;
_ZN21BlockRenderDispatcherC1EP11BlockColors = __main_start + 0x00616d20;
_ZN13BufferBuilderC1Ei = __main_start + 0x00638220;
_ZN13BufferBuilder15finaliseShadersEv = __main_start + 0x00638310;
_ZN13BufferBuilder5clearEv = __main_start + 0x006383a4;
_ZN13BufferBuilder19useProjectedTextureEb = __main_start + 0x006383d8;
_ZN13BufferBuilder3texEff = __main_start + 0x006383f0;
_ZN13BufferBuilder5colorEiiii = __main_start + 0x0063840c;
_ZN13BufferBuilder6vertexEfff = __main_start + 0x00638480;
_ZN13BufferBuilder6Bounds7addVertEfff = __main_start + 0x006388a8;
_ZN13BufferBuilder12vertexDoubleEddd = __main_start + 0x0063890c;
_ZN13BufferBuilder14vertexNoBoundsEfff = __main_start + 0x0063891c;
_ZN13BufferedImageC1Eiii = __main_start + 0x00638dac;
_ZN13BufferedImageD2Ev = __main_start + 0x00639710;
_ZN13BufferedImage8getWidthEv = __main_start + 0x006397ac;
_ZN13BufferedImage9getHeightEv = __main_start + 0x006397b4;
_ZN13BufferedImage6getRGBEiiii15arrayWithLengthIiEiii = __main_start + 0x006397bc;
_ZN20ClientPacketListener10staticCtorEv = __main_start + 0x006413f4;
_ZN20ClientPacketListenerD2Ev = __main_start + 0x00641400;
_ZN20ClientPacketListenerD0Ev = __main_start + 0x00641474;
_ZN20ClientPacketListener22handleEntityLinkPacketESt10shared_ptrI30ClientboundSetEntityLinkPacketE = __main_start + 0x0064150c;
_ZN20CConsoleMinecraftApp14ReadBannedListEi10eTMSActionb = __main_start + 0x00642530;
_ZN20ClientPacketListener15handleAddEntityESt10shared_ptrI26ClientboundAddEntityPacketE = __main_start + 0x006428f8;
_ZN20ClientPacketListener22handleAddExperienceOrbESt10shared_ptrI33ClientboundAddExperienceOrbPacketE = __main_start + 0x00645298;
_ZN20ClientPacketListener21handleAddGlobalEntityESt10shared_ptrI32ClientboundAddGlobalEntityPacketE = __main_start + 0x006453f0;
_ZN20ClientPacketListener17handleAddPaintingESt10shared_ptrI28ClientboundAddPaintingPacketE = __main_start + 0x00645590;
_ZN20ClientPacketListener21handlePlayerAbilitiesESt10shared_ptrI32ServerboundPlayerAbilitiesPacketE = __main_start + 0x00645670;
_ZN20ClientPacketListener21handlePlayerAbilitiesESt10shared_ptrI32ClientboundPlayerAbilitiesPacketE = __main_start + 0x0064576c;
_ZN20ClientPacketListener15handleAddPlayerESt10shared_ptrI26ClientboundAddPlayerPacketE = __main_start + 0x00645838;
_ZN20ClientPacketListener20handleSetCarriedItemESt10shared_ptrI31ServerboundSetCarriedItemPacketE = __main_start + 0x006461fc;
_ZN20ClientPacketListener19handleParticleEventESt10shared_ptrI31ClientboundLevelParticlesPacketE = __main_start + 0x00646414;
_ZN20ClientPacketListener31handleSetEntityPassengersPacketESt10shared_ptrI30ClientboundSetPassengersPacketE = __main_start + 0x00646484;
_ZN20ClientPacketListener16handleMovePlayerESt10shared_ptrI27ServerboundMovePlayerPacketE = __main_start + 0x006466b4;
_ZN20ClientPacketListener15handleExplosionESt10shared_ptrI24ClientboundExplodePacketE = __main_start + 0x00646738;
_ZN20ClientPacketListener16handleMoveEntityESt10shared_ptrI27ClientboundMoveEntityPacketE = __main_start + 0x00646924;
_ZN20ClientPacketListener15handleGameEventESt10shared_ptrI26ClientboundGameEventPacketE = __main_start + 0x006469c0;
_ZN20ClientPacketListener22handleChatAutoCompleteESt10shared_ptrI33ServerboundChatAutoCompletePacketE = __main_start + 0x00646d74;
_ZN20ClientPacketListener22handleChatAutoCompleteESt10shared_ptrI33ClientboundChatAutoCompletePacketE = __main_start + 0x00646ed4;
_ZN20ClientPacketListener10handleChatESt10shared_ptrI21ServerboundChatPacketE = __main_start + 0x00646ef4;
_ZN20ClientPacketListener17handleBlockUpdateESt10shared_ptrI28ClientboundBlockUpdatePacketE = __main_start + 0x00647280;
_ZN20ClientPacketListener16handleBlockEventESt10shared_ptrI27ClientboundBlockEventPacketE = __main_start + 0x00647524;
_ZN20ClientPacketListener22handleContainerContentESt10shared_ptrI36ClientboundContainerSetContentPacketE = __main_start + 0x006477dc;
_ZN20ClientPacketListener12onDisconnectEN16DisconnectPacket17eDisconnectReasonEPv = __main_start + 0x00647858;
_ZN20ClientPacketListener20handleSetCarriedItemESt10shared_ptrI31ClientboundSetCarriedItemPacketE = __main_start + 0x00647b34;
_ZN20ClientPacketListener23handleBlockRegionUpdateESt10shared_ptrI23BlockRegionUpdatePacketE = __main_start + 0x00648104;
_ZN20ClientPacketListener13handleAnimateESt10shared_ptrI24ClientboundAnimatePacketE = __main_start + 0x0064a354;
_ZN20ClientPacketListener19handleContainerOpenESt10shared_ptrI30ClientboundContainerOpenPacketE = __main_start + 0x0064a6f0;
_ZN20ClientPacketListener11handleLoginESt10shared_ptrI22ClientboundLoginPacketE = __main_start + 0x0064a7e4;
_ZN20ClientPacketListener12handleAddMobESt10shared_ptrI23ClientboundAddMobPacketE = __main_start + 0x0064ad7c;
_ZN20ClientPacketListener13handleRespawnESt10shared_ptrI24ClientboundRespawnPacketE = __main_start + 0x0064b170;
_ZN20ClientPacketListener21handleRemoveMobEffectESt10shared_ptrI32ClientboundRemoveMobEffectPacketE = __main_start + 0x0064b1dc;
_ZN20ClientPacketListener19handleCustomPayloadESt10shared_ptrI30ClientboundCustomPayloadPacketE = __main_start + 0x0064b29c;
_ZN20ClientPacketListener22handleContainerSetSlotESt10shared_ptrI33ClientboundContainerSetSlotPacketE = __main_start + 0x0064b400;
_ZN20ClientPacketListener22handleContainerSetDataESt10shared_ptrI33ClientboundContainerSetDataPacketE = __main_start + 0x0064b5e4;
_ZN20ClientPacketListener14handlePreLoginESt10shared_ptrI25ServerboundPreLoginPacketE = __main_start + 0x0064b7f4;
_ZN20ClientPacketListener13handleTextureESt10shared_ptrI13TexturePacketE = __main_start + 0x0064b914;
_ZN20ClientPacketListener24handleTextureAndGeometryESt10shared_ptrI24TextureAndGeometryPacketE = __main_start + 0x0064b978;
_ZN20ClientPacketListener14handlePreLoginESt10shared_ptrI25ClientboundPreLoginPacketE = __main_start + 0x0064c03c;
_ZN20ClientPacketListener18handlePlayerCombatESt10shared_ptrI29ClientboundPlayerCombatPacketE = __main_start + 0x0064c0a8;
_ZN20ClientPacketListener22handleChangeDifficultyESt10shared_ptrI33ClientboundChangeDifficultyPacketE = __main_start + 0x0064c1a0;
_ZN20ClientPacketListener15handleSetBorderESt10shared_ptrI26ClientboundSetBorderPacketE = __main_start + 0x0064c3e0;
_ZN20ClientPacketListener15handleSetTitlesESt10shared_ptrI26ClientboundSetTitlesPacketE = __main_start + 0x0064c694;
_ZN20ClientPacketListener16handleMovePlayerESt10shared_ptrI31ClientboundPlayerPositionPacketE = __main_start + 0x0064c914;
_ZN20ClientPacketListener19handleCustomPayloadESt10shared_ptrI30ServerboundCustomPayloadPacketE = __main_start + 0x0064ceb4;
_ZN20ClientPacketListener18handleContainerAckESt10shared_ptrI29ClientboundContainerAckPacketE = __main_start + 0x0064d06c;
_ZN20ClientPacketListener20handleContainerCloseESt10shared_ptrI31ClientboundContainerClosePacketE = __main_start + 0x0064d934;
_ZN20ClientPacketListener21handleChunkVisibilityESt10shared_ptrI21ChunkVisibilityPacketE = __main_start + 0x0064db2c;
_ZN20ClientPacketListener17handleMapItemDataESt10shared_ptrI28ClientboundMapItemDataPacketE = __main_start + 0x0064dd10;
_ZN20ClientPacketListener32handleBlockCollectionDestructionESt10shared_ptrI43ClientboundBlockCollectionDestructionPacketE = __main_start + 0x0064ddc8;
_ZN20ClientPacketListener20handleOpenSignEditorESt10shared_ptrI31ClientboundOpenSignEditorPacketE = __main_start + 0x0064df3c;
_ZN20ClientPacketListener18handleContainerAckESt10shared_ptrI29ServerboundContainerAckPacketE = __main_start + 0x0064dfe8;
_ZN20ClientPacketListener16handlePlayerInfoESt10shared_ptrI16PlayerInfoPacketE = __main_start + 0x0064e090;
_ZN20ClientPacketListener25handleChunkVisibilityAreaESt10shared_ptrI25ChunkVisibilityAreaPacketE = __main_start + 0x0064e120;
_ZN20ClientPacketListener21handleBlockEntityDataESt10shared_ptrI32ClientboundBlockEntityDataPacketE = __main_start + 0x0064e134;
_ZN20ClientPacketListener15handleAwardStatESt10shared_ptrI26ClientboundAwardStatPacketE = __main_start + 0x0064e224;
_ZN20ClientPacketListener22handleBlockDestructionESt10shared_ptrI33ClientboundBlockDestructionPacketE = __main_start + 0x0064e290;
_ZN20ClientPacketListener21canHandleAsyncPacketsEv = __main_start + 0x0064e54c;
_ZN20ClientPacketListener16handleDisconnectESt10shared_ptrI16DisconnectPacketE = __main_start + 0x0064e594;
_ZN20ClientPacketListener23handleChunkBlocksUpdateESt10shared_ptrI34ClientboundChunkBlocksUpdatePacketE = __main_start + 0x0064ebc8;
_ZN20ClientPacketListener17handleEntityEventESt10shared_ptrI28ClientboundEntityEventPacketE = __main_start + 0x0064eda0;
_ZN20ClientPacketListener13handleAnimateESt10shared_ptrI22ServerboundSwingPacketE = __main_start + 0x0064f020;
_ZN20ClientPacketListener21handleSetEntityMotionESt10shared_ptrI32ClientboundSetEntityMotionPacketE = __main_start + 0x0064f0b0;
_ZN20ClientPacketListener21handleSetEquippedItemESt10shared_ptrI32ClientboundSetEquippedItemPacketE = __main_start + 0x0064f1e8;
_ZN20ClientPacketListener19handleSetExperienceESt10shared_ptrI30ClientboundSetExperiencePacketE = __main_start + 0x0064f1ec;
_ZN20ClientPacketListener15handleSetHealthESt10shared_ptrI26ClientboundSetHealthPacketE = __main_start + 0x0064f278;
_ZN20ClientPacketListener25handleSetPlayerTeamPacketESt10shared_ptrI30ClientboundSetPlayerTeamPacketE = __main_start + 0x0064f2ec;
_ZN20ClientPacketListener14handleSetSpawnESt10shared_ptrI33ClientboundSetSpawnPositionPacketE = __main_start + 0x0064f320;
_ZN20ClientPacketListener13handleSetTimeESt10shared_ptrI24ClientboundSetTimePacketE = __main_start + 0x0064f324;
_ZN20ClientPacketListener21handleMoveEntitySmallESt10shared_ptrI21MoveEntityPacketSmallE = __main_start + 0x0064f328;
_ZN20ClientPacketListener22isServerPacketListenerEv = __main_start + 0x0064f3bc;
_ZN20ClientPacketListener16handleLevelEventESt10shared_ptrI27ClientboundLevelEventPacketE = __main_start + 0x0064f3c4;
_ZN20ClientPacketListener28handleEntityActionAtPositionESt10shared_ptrI28ClientboundPlayerSleepPacketE = __main_start + 0x0064f65c;
_ZN20ClientPacketListener15handleKeepAliveESt10shared_ptrI26ServerboundKeepAlivePacketE = __main_start + 0x0064f660;
_ZN20ClientPacketListener15handleRotateMobESt10shared_ptrI27ClientboundRotateHeadPacketE = __main_start + 0x0064f7a0;
_ZN20ClientPacketListener20handleTakeItemEntityESt10shared_ptrI31ClientboundTakeItemEntityPacketE = __main_start + 0x0064faa4;
_ZN20ClientPacketListener22handleUpdateAttributesESt10shared_ptrI33ClientboundUpdateAttributesPacketE = __main_start + 0x0064fb0c;
_ZN20ClientPacketListener20handleTeleportEntityESt10shared_ptrI31ClientboundTeleportEntityPacketE = __main_start + 0x0064fd44;
_ZN20ClientPacketListener20handleContainerCloseESt10shared_ptrI31ServerboundContainerClosePacketE = __main_start + 0x0064fdcc;
_ZN20ClientPacketListener21handleUpdateMobEffectESt10shared_ptrI32ClientboundUpdateMobEffectPacketE = __main_start + 0x00650038;
_ZN20ClientPacketListener18handleResourcePackESt10shared_ptrI29ClientboundResourcePackPacketE = __main_start + 0x00650078;
_ZN20ClientPacketListener15handleSetCameraESt10shared_ptrI26ClientboundSetCameraPacketE = __main_start + 0x00650138;
_ZN20ClientPacketListener26handleTabListCustomisationESt10shared_ptrI24ClientboundTabListPacketE = __main_start + 0x00650188;
_ZN20ClientPacketListener16handleBossUpdateESt10shared_ptrI26ClientboundBossEventPacketE = __main_start + 0x00650344;
_ZN20ClientPacketListener36handleClientboundSetPlayerTeamPacketESt10shared_ptrI30ClientboundSetPlayerTeamPacketE = __main_start + 0x00650768;
_ZN20ClientPacketListener15handleKeepAliveESt10shared_ptrI26ClientboundKeepAlivePacketE = __main_start + 0x00650994;
_ZN20ClientPacketListener19handleSetEntityDataESt10shared_ptrI30ClientboundSetEntityDataPacketE = __main_start + 0x00650c84;
_ZN20ClientPacketListener18handleItemCooldownESt10shared_ptrI25ClientboundCooldownPacketE = __main_start + 0x00650ed4;
_ZN20ClientPacketListener17handleMoveVehicleESt10shared_ptrI28ClientboundMoveVehiclePacketE = __main_start + 0x00651d14;
_ZN20ClientPacketListener17handleMoveVehicleESt10shared_ptrI28ServerboundMoveVehiclePacketE = __main_start + 0x00651f28;
_ZN20ClientPacketListener27handleServerSettingsChangedESt10shared_ptrI27ServerSettingsChangedPacketE = __main_start + 0x00651f58;
_ZN20ClientPacketListener10handleVoteESt10shared_ptrI10VotePacketE = __main_start + 0x00651fe0;
_ZN16ClientScoreboard13GetWinnerNameEi = __main_start + 0x006537cc;
_ZN17CreateWorldScreen6renderEiif = __main_start + 0x00655c4c;
_ZN10DataFixers16createFixerUpperEv = __main_start + 0x00658f30;
_ZN14DataFixerUpperC1Ei = __main_start + 0x00659374;
_ZN19DefaultVertexFormat10staticCtorEv = __main_start + 0x0065a0c8;
_ZN18DispenserBootstrap10StaticCtorEv = __main_start + 0x0065a928;
_ZN13CMinecraftAppD0Ev = __main_start + 0x006626d4;
_ZN13CMinecraftApp17CaptureScreenshotEi = __main_start + 0x006626f8;
_ZN13CMinecraftApp8RunFrameEv = __main_start + 0x006626fc;
_ZN20CConsoleMinecraftAppD0Ev = __main_start + 0x0066a414;
_ZN12GuiComponentD2Ev = __main_start + 0x0066b00c;
_ZN9Minecraft11GetInstanceEv = __main_start + 0x0067db90;
_ZN9Minecraft11GetMiniGameEv = __main_start + 0x0067dba0;
_ZN14GlStateManager10pushMatrixEv = __main_start + 0x006824c4;
_ZN14GlStateManager10translatefEfff = __main_start + 0x006824dc;
_ZN14GlStateManager7rotatefEffff = __main_start + 0x006824f4;
_ZN14GlStateManager9popMatrixEv = __main_start + 0x0068252c;
_ZN14GlStateManager10matrixModeEi = __main_start + 0x00682798;
_ZN14GlStateManager6scalefEfff = __main_start + 0x006827b8;
_ZN14GlStateManager19enableRescaleNormalEv = __main_start + 0x006827d0;
_ZN14GlStateManager7color4fEffff = __main_start + 0x006827e0;
_ZN14GlStateManager20disableRescaleNormalEv = __main_start + 0x00682818;
_ZN14GlStateManager19enableColorMaterialEv = __main_start + 0x00683038;
_ZN14GlStateManager20disableColorMaterialEv = __main_start + 0x0068305c;
_ZN8Lighting7turnOffEv = __main_start + 0x00683a6c;
_ZN14GlStateManager14disableTextureEv = __main_start + 0x00683a90;
_ZN14GlStateManager10shadeModelEi = __main_start + 0x00683ab0;
_ZN14GlStateManager11enableBlendEv = __main_start + 0x00683acc;
_ZN14GlStateManager9blendFuncEii = __main_start + 0x00683ae0;
_ZN14GlStateManager16disableAlphaTestEv = __main_start + 0x00683b18;
_ZN14GlStateManager9depthMaskEb = __main_start + 0x00683b2c;
_ZN14GlStateManager11disableCullEv = __main_start + 0x00683b58;
_ZN14GlStateManager12disableBlendEv = __main_start + 0x00683b6c;
_ZN14GlStateManager13enableTextureEv = __main_start + 0x00683b80;
_ZN14GlStateManager15enableAlphaTestEv = __main_start + 0x00683ba0;
_ZN8Lighting6turnOnEv = __main_start + 0x00683bb4;
_ZN14GlStateManager15disableLightingEv = __main_start + 0x00683f08;
_ZN14GlStateManager9depthFuncEi = __main_start + 0x00683f18;
_ZN14GlStateManager14enableLightingEv = __main_start + 0x00683f48;
_ZN14GlStateManager9alphaFuncEif = __main_start + 0x0068448c;
_ZN19EntityBlockRendererC1Ev = __main_start + 0x0068757c;
_ZN22EntityRenderDispatcherC1EP8TexturesP12ItemRenderer = __main_start + 0x00689064;
_ZN14GlStateManager11bindTextureEi = __main_start + 0x0068b840;
_ZN9Minecraft10InMiniGameE11EMiniGameIdb = __main_start + 0x0068cfb4;
_ZN12GuiComponent18drawCenteredStringEP4FontRKNSt3__112basic_stringIwNS2_11char_traitsIwEENS2_9allocatorIwEEEEiii = __main_start + 0x0068fdd0;
_Z18PIXBeginNamedEventfPKcz = __main_start + 0x0069109c;
_ZN16PIXEndNamedEventEv = __main_start + 0x006910c8;
j_memcpy_0 = __main_start + 0x006910f8;
j_memset_0 = __main_start + 0x006910fc;
j_memset_0_0 = __main_start + 0x00691100;
j_malloc = __main_start + 0x00691104;
j_free_0 = __main_start + 0x00691108;
_ZN8FaceInfo10staticCtorEv = __main_start + 0x0069113c;
_ZN9Minecraft16getBlockRendererEv = __main_start + 0x006915a8;
_ZN9Minecraft15getCameraEntityEv = __main_start + 0x006931f8;
_ZN4FontC1EP7OptionsRKNSt3__112basic_stringIwNS2_11char_traitsIwEENS2_9allocatorIwEEEEP8TexturesbP16ResourceLocationiiiiPt = __main_start + 0x00694684;
_ZN4Font14cacheCharacterEi = __main_start + 0x00694a34;
_ZN4Font15renderCharacterEwP13BufferBuilder = __main_start + 0x00694b24;
_ZN4Font10drawShadowERKNSt3__112basic_stringIwNS0_11char_traitsIwEENS0_9allocatorIwEEEEiii = __main_start + 0x00694c0c;
_ZN4Font4drawERKNSt3__112basic_stringIwNS0_11char_traitsIwEENS0_9allocatorIwEEEEiiibb = __main_start + 0x00694c78;
_ZN4Font8sanitizeERKNSt3__112basic_stringIwNS0_11char_traitsIwEENS0_9allocatorIwEEEEb = __main_start + 0x00695448;
_ZN4Font5widthERKNSt3__112basic_stringIwNS0_11char_traitsIwEENS0_9allocatorIwEEEE = __main_start + 0x0069576c;
_ZN14GlStateManager9getMatrixEiP11FloatBuffer = __main_start + 0x00697144;
_ZN8GameMode11isSpectatorEv = __main_start + 0x00697624;
_ZN12GameRendererC1EP9MinecraftP15ResourceManager = __main_start + 0x00698da4;
_ZN9Minecraft21getItemInHandRendererEv = __main_start + 0x006992d8;
_ZN12GameRenderer4tickEb = __main_start + 0x006996ec;
_ZN12GameRenderer4pickEf = __main_start + 0x0069a1c0;
_ZN14GlStateManager12loadIdentityEv = __main_start + 0x0069bb4c;
_ZN12GameRenderer15getLightTextureEiP5Level = __main_start + 0x0069c630;
_ZN12GameRenderer18updateLightTextureEf = __main_start + 0x0069c654;
_ZN12GameRenderer6renderEfxb = __main_start + 0x0069cbf0;
_ZN12GameRenderer11fjGetFpsCapEi = __main_start + 0x0069ce18;
_ZN9Minecraft13getAverageFpsEv = __main_start + 0x0069ce38;
_ZN12GameRenderer11renderLevelEfx = __main_start + 0x0069ce48;
_ZN3Gui6renderEfbii = __main_start + 0x0069cf5c;
_ZN12GameRenderer14setupGuiScreenEi = __main_start + 0x0069daa8;
_ZN14GlStateManager5clearEi = __main_start + 0x0069db38;
_ZN14GlStateManager10disableFogEv = __main_start + 0x0069f97c;
_ZN9Minecraft25getEntityRenderDispatcherEv = __main_start + 0x006a010c;
_ZN14GlStateManager8cullFaceEi = __main_start + 0x006a0270;
_ZN14GlStateManager15enableDepthTestEv = __main_start + 0x006a0ba4;
_ZN14GlStateManager9colorMaskEbbbb = __main_start + 0x006a0bb8;
_ZN14GlStateManager5orthoEdddddd = __main_start + 0x006a5b10;
_ZN12GameRenderer13resetFogColorEb = __main_start + 0x006a5bb0;
_ZN14GlStateManager16disableDepthTestEv = __main_start + 0x006a5d68;
_ZN12GameRenderer29renderItemActivationAnimationEiif = __main_start + 0x006a5e10;
_ZN14GlStateManager12BooleanStateC2Ei = __main_start + 0x006a72f8;
_ZN14GlStateManager12TextureStateC2Ev = __main_start + 0x006a758c;
_ZN14GlStateManager12disableLightEi = __main_start + 0x006a7948;
_ZN14GlStateManager12enableTexGenEN14GlStateManager6TexGenE = __main_start + 0x006a7a78;
_ZN14GlStateManager13disableTexGenEN14GlStateManager6TexGenE = __main_start + 0x006a7b00;
_ZN14GlStateManager10texGenModeEN14GlStateManager6TexGenEi = __main_start + 0x006a7b18;
_ZN14GlStateManager11texGenParamEN14GlStateManager6TexGenEiP11FloatBuffer = __main_start + 0x006a7b48;
_ZN14GlStateManager13activeTextureEi = __main_start + 0x006a7bc0;
_ZN14GlStateManager10clearDepthEd = __main_start + 0x006a7d30;
_ZN14GlStateManager10staticCtorEv = __main_start + 0x006a7e98;
_ZN14GlStateManager18disableClientStateEi = __main_start + 0x006a8020;
_ZN3GuiC1EP9Minecraft = __main_start + 0x006a9b8c;
_ZN12GuiComponentC1Ev = __main_start + 0x006a9d74;
_ZN9Minecraft16useFancyGraphicsEv = __main_start + 0x006a9d7c;
_ZN3Gui13renderPumpkinEii = __main_start + 0x006a9ddc;
_ZN3Gui19renderPortalOverlayEfii = __main_start + 0x006a9f34;
_ZN3Gui20renderThermalOverlayEP25ThermalAreaRuleDefinitionfiif = __main_start + 0x006aa144;
_ZN12GuiComponent4fillEiiiii = __main_start + 0x006aa3dc;
_ZN3Gui4tickEv = __main_start + 0x006aa510;
_ZN12GuiComponent10drawStringEP4FontRKNSt3__112basic_stringIwNS2_11char_traitsIwEENS2_9allocatorIwEEEEiii = __main_start + 0x006ab3b4;
_ZN5InputC2Ev = __main_start + 0x006af8f0;
_ZN5Input4tickEP11LocalPlayer = __main_start + 0x006af90c;
_ZN19MultiPlayerGameMode14isInputAllowedEi = __main_start + 0x006afcbc;
_ZN5Input13getMoveVectorEv = __main_start + 0x006afe58;
_ZN10ItemColors13createDefaultEP11BlockColors = __main_start + 0x006b0490;
_ZN9ItemIdFix10staticCtorEv = __main_start + 0x006b4748;
_ZN18ItemInHandRendererC1EP9Minecraft = __main_start + 0x006b7314;
_ZN16BlockEntityIdFix10staticCtorEv = __main_start + 0x006bc4b4;
_ZN12ItemRendererC1EP22EntityRenderDispatcherP8TexturesP10ItemColors = __main_start + 0x006bd0bc;
_ZN9Minecraft9setScreenEP6Screen = __main_start + 0x006c0f78;
_ZN13LevelRendererC1EP9MinecraftP8Textures = __main_start + 0x006c355c;
_ZN13LevelRenderer21DestroyedBlockManager4tickEv = __main_start + 0x006c9db4;
_ZN19MultiPlayerGameMode11getTutorialEv = __main_start + 0x006d28ec;
_ZN11LocalPlayer15handleMouseDownEib = __main_start + 0x006d29f4;
_ZN11LocalPlayer16handleMouseClickEi = __main_start + 0x006d3704;
_ZN19MultiPlayerGameMode9useItemOnEN3std10shared_ptrI6PlayerEEP5LevelRK8BlockPosPK9DirectionP4Vec3N15InteractionHand16EInteractionHandEbPb = __main_start + 0x006d45cc;
_ZN19MultiPlayerGameMode16hasInfiniteItemsEv = __main_start + 0x006d47ac;
_ZN9Minecraft23GetClientMasterGameModeEv = __main_start + 0x006d55c8;
_ZN11LocalPlayer22IsWaitingForScoreboardEv = __main_start + 0x006d593c;
_ZN11LocalPlayer23SetWaitingForScoreboardEb = __main_start + 0x006d5944;
_ZN11MapRendererC1EP4FontP7OptionsP8Textures = __main_start + 0x006d5978;
_ZN13MemoryTracker16createByteBufferEi = __main_start + 0x006d65d8;
_ZN13MemoryTracker15createIntBufferEi = __main_start + 0x006d65dc;
_ZN9MinecraftC1EP9ComponentP6CanvasP15MinecraftAppletiib = __main_start + 0x006d7390;
_ZN9Minecraft13getFixerUpperEv = __main_start + 0x006d7e44;
_ZN9Minecraft4initEv = __main_start + 0x006d87bc;
_ZN9Minecraft17setLocalPlayerIdxEi = __main_start + 0x006d87c8;
_ZN9Minecraft10run_middleEv = __main_start + 0x006da2f0;
_ZN9Minecraft10isTutorialEv = __main_start + 0x006dbcbc;
_ZN9Minecraft4tickEbb = __main_start + 0x006dc02c;
_ZN19MultiPlayerGameMode16releaseUsingItemEN3std10shared_ptrI6PlayerEE = __main_start + 0x006de598;
_ZN19MultiPlayerGameMode27isServerControlledInventoryEv = __main_start + 0x006de640;
_ZN9Minecraft18tickAllConnectionsEv = __main_start + 0x006dedd8;
_ZN9Minecraft5startERKNSt3__112basic_stringIwNS0_11char_traitsIwEENS0_9allocatorIwEEEES8_ = __main_start + 0x006dff3c;
_ZN9Minecraft13getConnectionEi = __main_start + 0x006e019c;
_ZN9Minecraft4mainEv = __main_start + 0x006e01ac;
_ZN15MinecraftServer8getLevelEi = __main_start + 0x006e301c;
_ZN19MultiPlayerGameMode19GetTutorialsEnabledEv = __main_start + 0x006e8990;
_ZN19MultiPlayerGameMode24ensureHasSentCarriedItemEv = __main_start + 0x006e9220;
_ZN19MultiPlayerGameMode10_useItemOnEN3std10shared_ptrI6PlayerEEP5LevelRK8BlockPosPK9DirectionP4Vec3N15InteractionHand16EInteractionHandEbPb = __main_start + 0x006e93f4;
_ZN7Options4initEv = __main_start + 0x006f1184;
_ZN7OptionsC1EP9Minecraft4File = __main_start + 0x006f16ec;
_ZN14ParticleEngineC1EP5LevelP8Textures = __main_start + 0x006f512c;
_ZN5InputD2Ev = __main_start + 0x006f7e50;
_ZN5InputD0Ev = __main_start + 0x006f7e54;
_ZN10Tesselator11getInstanceEv = __main_start + 0x0070521c;
_ZN10Tesselator10getBuilderEv = __main_start + 0x0070522c;
_ZN11ServerLevel25getDimensionSpecificSpawnEv = __main_start + 0x0070fcac;
_ZN11ServerLevel15getPortalForcerEv = __main_start + 0x0070fcbc;
_ZN16ProgressRendererC1EP9Minecraft = __main_start + 0x00715948;
_ZN6ScreenC1Ev = __main_start + 0x00717814;
_ZN6Screen6renderEiif = __main_start + 0x00717860;
_ZN6Rect2iC1Eiiii = __main_start + 0x007178c4;
_ZN6Screen12mouseClickedEiii = __main_start + 0x007182a4;
_ZNK16ResourceLocation10getTextureEv = __main_start + 0x00718ce8;
_ZN6Screen10keyPressedEwi = __main_start + 0x00719194;
_ZN6Screen13mouseReleasedEiii = __main_start + 0x007191ac;
_ZN6Screen13buttonClickedEP6Button = __main_start + 0x007191e4;
_ZN6Screen4initEP9Minecraftii = __main_start + 0x007191e8;
_ZN6Screen4initEv = __main_start + 0x00719278;
_ZN6Screen7setSizeEii = __main_start + 0x00719280;
_ZN6Screen12updateEventsEv = __main_start + 0x00719284;
_ZN6Screen10mouseEventEv = __main_start + 0x00719288;
_ZN6Screen13keyboardEventEv = __main_start + 0x0071928c;
_ZN6Screen4tickEv = __main_start + 0x00719290;
_ZN6Screen7removedEv = __main_start + 0x00719294;
_ZN6Screen16renderBackgroundEv = __main_start + 0x00719298;
_ZN6Screen16renderBackgroundEi = __main_start + 0x007192a8;
_ZN6Screen20renderDirtBackgroundEi = __main_start + 0x007192e8;
_ZN6Screen13isPauseScreenEv = __main_start + 0x007192ec;
_ZN6Screen13confirmResultEbi = __main_start + 0x007192f4;
_ZN6Screen10tabPressedEv = __main_start + 0x007192f8;
_ZN20ScreenSizeCalculator4initEP7Optionsiii = __main_start + 0x007192fc;
_ZN20ScreenSizeCalculatorC1EP7Optionsi = __main_start + 0x007193b0;
_ZN20ScreenSizeCalculator8getWidthEv = __main_start + 0x00719400;
_ZN20ScreenSizeCalculator9getHeightEv = __main_start + 0x00719408;
_ZN21ScrolledSelectionListC1EP9Minecraftiiiii = __main_start + 0x00719410;
_ZN21ScrolledSelectionList14getMaxPositionEv = __main_start + 0x00719448;
_ZN17SelectWorldScreenC1Ev = __main_start + 0x00719588;
_ZN17SelectWorldScreen7setSizeEii = __main_start + 0x007195fc;
_ZN17SelectWorldScreen8postInitEv = __main_start + 0x00719ab4;
_ZN17SelectWorldScreen13buttonClickedEP6Button = __main_start + 0x00719ed4;
_ZN17SelectWorldScreen13confirmResultEbi = __main_start + 0x0071a3e0;
_ZN17SelectWorldScreen6renderEiif = __main_start + 0x0071a478;
_ZN28ServerGamePacketListenerImplD2Ev = __main_start + 0x00720460;
_ZN28ServerGamePacketListenerImplD0Ev = __main_start + 0x00720504;
_ZN28ServerGamePacketListenerImpl14handleInteractESt10shared_ptrI25ServerboundInteractPacketE = __main_start + 0x007205cc;
_ZN28ServerGamePacketListenerImpl16handlePaddleBoatESt10shared_ptrI27ServerboundPaddleBoatPacketE = __main_start + 0x0072079c;
_ZN28ServerGamePacketListenerImpl26handleAcceptTeleportPacketESt10shared_ptrI36ServerboundAcceptTeleportationPacketE = __main_start + 0x00720dc0;
_ZN28ServerGamePacketListenerImpl19handleClientCommandESt10shared_ptrI30ServerboundClientCommandPacketE = __main_start + 0x00720e5c;
_ZN28ServerGamePacketListenerImpl26handleContainerButtonClickESt10shared_ptrI37ServerboundContainerButtonClickPacketE = __main_start + 0x007219c4;
_ZN28ServerGamePacketListenerImpl16handleSignUpdateESt10shared_ptrI27ServerboundSignUpdatePacketE = __main_start + 0x00721ed0;
_ZN28ServerGamePacketListenerImpl15handleUseItemOnESt10shared_ptrI26ServerboundUseItemOnPacketE = __main_start + 0x007228d0;
_ZN28ServerGamePacketListenerImpl13handleUseItemESt10shared_ptrI24ServerboundUseItemPacketE = __main_start + 0x0072299c;
_ZN28ServerGamePacketListenerImpl26handleResourcePackResponseESt10shared_ptrI29ServerboundResourcePackPacketE = __main_start + 0x00722ed8;
_ZN28ServerGamePacketListenerImpl21canHandleAsyncPacketsEv = __main_start + 0x00722f78;
_ZN28ServerGamePacketListenerImpl19handlePlayerCommandESt10shared_ptrI30ServerboundPlayerCommandPacketE = __main_start + 0x007231c8;
_ZN28ServerGamePacketListenerImpl23handleBlockRegionUpdateESt10shared_ptrI23BlockRegionUpdatePacketE = __main_start + 0x0072323c;
_ZN28ServerGamePacketListenerImpl20handleUpdateProgressESt10shared_ptrI20UpdateProgressPacketE = __main_start + 0x00723240;
_ZN28ServerGamePacketListenerImpl20handleContainerClickESt10shared_ptrI31ServerboundContainerClickPacketE = __main_start + 0x00723294;
_ZN28ServerGamePacketListenerImpl22handleContainerContentESt10shared_ptrI36ClientboundContainerSetContentPacketE = __main_start + 0x00723634;
_ZN28ServerGamePacketListenerImpl21handleDamageIndicatorESt10shared_ptrI32ClientboundDamageIndicatorPacketE = __main_start + 0x007236d4;
_ZN28ServerGamePacketListenerImpl18handlePlayerCombatESt10shared_ptrI29ClientboundPlayerCombatPacketE = __main_start + 0x0072391c;
_ZN28ServerGamePacketListenerImpl22handleChangeDifficultyESt10shared_ptrI33ClientboundChangeDifficultyPacketE = __main_start + 0x00723a4c;
_ZN28ServerGamePacketListenerImpl15handleSetBorderESt10shared_ptrI26ClientboundSetBorderPacketE = __main_start + 0x00723ce0;
_ZN28ServerGamePacketListenerImpl15handleSetTitlesESt10shared_ptrI26ClientboundSetTitlesPacketE = __main_start + 0x00723f34;
_ZN28ServerGamePacketListenerImpl21handleUpdateMobEffectESt10shared_ptrI32ClientboundUpdateMobEffectPacketE = __main_start + 0x00724174;
_ZN28ServerGamePacketListenerImpl16handleKickPlayerESt10shared_ptrI16KickPlayerPacketE = __main_start + 0x007243e8;
_ZN28ServerGamePacketListenerImpl17handleGameCommandESt10shared_ptrI17GameCommandPacketE = __main_start + 0x00724448;
_ZN28ServerGamePacketListenerImpl10handleVoteESt10shared_ptrI10VotePacketE = __main_start + 0x007244bc;
_ZN28ServerGamePacketListenerImpl17handleMoveVehicleESt10shared_ptrI28ServerboundMoveVehiclePacketE = __main_start + 0x00724574;
_ZN28ServerGamePacketListenerImpl34handleUpdateGameRuleProgressPacketESt10shared_ptrI28UpdateGameRuleProgressPacketE = __main_start + 0x007245a4;
_ZN28ServerGamePacketListenerImpl17handlePlayerReadyESt10shared_ptrI17PlayerReadyPacketE = __main_start + 0x00724778;
_ZN28ServerGamePacketListenerImpl19handleMapSelectInfoESt10shared_ptrI19MapSelectInfoPacketE = __main_start + 0x00724824;
_ZN28ServerGamePacketListenerImpl14handleGameModeESt10shared_ptrI14GameModePacketE = __main_start + 0x0072529c;
_ZN28ServerGamePacketListenerImpl17handlePlayerInputESt10shared_ptrI28ServerboundPlayerInputPacketE = __main_start + 0x007253a0;
_ZN28ServerGamePacketListenerImpl22handleScoreboardPacketESt10shared_ptrI16ScoreboardPacketE = __main_start + 0x007259a4;
_ZN28ServerGamePacketListenerImpl25handleSetCreativeModeSlotESt10shared_ptrI36ServerboundSetCreativeModeSlotPacketE = __main_start + 0x00725aac;
_ZN28ServerGamePacketListenerImpl40handleMiniGamePlayerSettingsUpdatePacketESt10shared_ptrI39ClientboundMGPlayerSettingsUpdatePacketE = __main_start + 0x00725d24;
_ZN28ServerGamePacketListenerImpl16handleLevelEventESt10shared_ptrI27ClientboundLevelEventPacketE = __main_start + 0x00725d90;
_ZN28ServerGamePacketListenerImpl23handleClientInformationESt10shared_ptrI34ServerboundClientInformationPacketE = __main_start + 0x00726240;
_ZN28ServerGamePacketListenerImpl13handlePowerupESt10shared_ptrI24ClientboundPowerupPacketE = __main_start + 0x007263d8;
_ZN28ServerGamePacketListenerImpl18handleDebugOptionsESt10shared_ptrI18DebugOptionsPacketE = __main_start + 0x00726ebc;
_ZN28ServerGamePacketListenerImpl15handleCraftItemESt10shared_ptrI15CraftItemPacketE = __main_start + 0x00726ecc;
_ZN28ServerGamePacketListenerImpl15handleTradeItemESt10shared_ptrI15TradeItemPacketE = __main_start + 0x00727188;
_ZN28ServerGamePacketListenerImpl18handleItemCooldownESt10shared_ptrI25ClientboundCooldownPacketE = __main_start + 0x00727538;
_ZN28ServerGamePacketListenerImpl36handleClientboundSetPlayerTeamPacketESt10shared_ptrI30ClientboundSetPlayerTeamPacketE = __main_start + 0x0072762c;
_ZN28ServerGamePacketListenerImpl15handleRotateMobESt10shared_ptrI27ClientboundRotateHeadPacketE = __main_start + 0x00727630;
_ZN11ServerLevel10staticCtorEv = __main_start + 0x0072770c;
_ZN11ServerLevel4tickEv = __main_start + 0x00728550;
_ZN11ServerLevel21allPlayersAreSleepingEv = __main_start + 0x00728960;
_ZN11ServerLevel13atEntityLimitESt10shared_ptrI6EntityE = __main_start + 0x0072e174;
_ZN8Settings10getBooleanE14EServerSettingb = __main_start + 0x0073aa54;
_ZN12StatsCounterC1Ev = __main_start + 0x00747150;
_ZN12StatsCounter4tickEi = __main_start + 0x00747b20;
_ZN12StatsCounter5clearEv = __main_start + 0x00747f00;
_ZN12StatsCounter5parseEPv = __main_start + 0x00747f24;
_ZN10Tesselator22CreateNewThreadStorageEi = __main_start + 0x0074dca8;
_ZN10TesselatorC1Ei = __main_start + 0x0074dcf4;
_ZN7Texture4initERKNSt3__112basic_stringIwNS0_11char_traitsIwEENS0_9allocatorIwEEEEiiiiiiiib = __main_start + 0x0074dd48;
_ZN7Texture4initERKNSt3__112basic_stringIwNS0_11char_traitsIwEENS0_9allocatorIwEEEEiiiiiiiiP13BufferedImageb = __main_start + 0x0074def4;
_ZN7Texture11updateOnGPUEv = __main_start + 0x0074e0f8;
_ZN7Texture17transferFromImageEP13BufferedImage = __main_start + 0x0074e310;
_ZN7TextureC1ERKNSt3__112basic_stringIwNS0_11char_traitsIwEENS0_9allocatorIwEEEEiiiiiiiP13BufferedImageb = __main_start + 0x0074ea50;
_ZN7TextureC1ERKNSt3__112basic_stringIwNS0_11char_traitsIwEENS0_9allocatorIwEEEEiiiiiiiiP13BufferedImageb = __main_start + 0x0074eaa8;
_ZN7TextureD1Ev = __main_start + 0x0074ead8;
_ZN7Texture7getDataEj = __main_start + 0x0074ec04;
_ZN7Texture9getHeightEv = __main_start + 0x0074ec10;
_ZN7Texture8getWidthEv = __main_start + 0x0074ec18;
_ZN7Texture10crispBlendEii = __main_start + 0x0074ec20;
_ZN7Texture12getManagerIdEv = __main_start + 0x0074eca8;
_ZN7Texture4bindEi = __main_start + 0x0074ecb8;
_ZN12TextureAtlasC1EiRKNSt3__112basic_stringIwNS0_11char_traitsIwEENS0_9allocatorIwEEEES8_P13BufferedImageb = __main_start + 0x0074ed04;
_ZN12TextureAtlas6stitchEv = __main_start + 0x0074ee74;
_ZN12TextureAtlas7loadUVsEv = __main_start + 0x0074f3f4;
_ZN12TextureAtlas18getStitchedTextureEv = __main_start + 0x0075daec;
_ZN14TextureManager14createInstanceEv = __main_start + 0x0075ed24;
_ZN14TextureManagerC1Ev = __main_start + 0x0075ed58;
_ZN21TexturePackRepositoryC1E4FileP9Minecraft = __main_start + 0x0075f270;
_ZN21TexturePackRepository13addDebugPacksEv = __main_start + 0x0075f59c;
_ZN21TexturePackRepository24clearInvalidTexturePacksEv = __main_start + 0x0075f9b8;
_ZN8TexturesC1EP21TexturePackRepositoryP7Options = __main_start + 0x0075fb00;
_ZN8Textures19loadIndexedTexturesEv = __main_start + 0x0075fcc4;
_ZN8Textures9readImageE13_TEXTURE_NAMERKNSt3__112basic_stringIwNS2_11char_traitsIwEENS2_9allocatorIwEEEE = __main_start + 0x00760814;
_ZN8Textures11loadTextureEi = __main_start + 0x00760b70;
_ZN8Textures11bindTextureEPK16ResourceLocation = __main_start + 0x00760c38;
_ZN8Textures20replaceTextureDirectE15arrayWithLengthIiEiii = __main_start + 0x00761788;
_ZN8Textures14releaseTextureEi = __main_start + 0x00761818;
_ZN8Textures4tickEbbb = __main_start + 0x00762158;
_ZN8Textures9reloadAllEv = __main_start + 0x00762268;
_ZN8Textures10freeStitchEv = __main_start + 0x00762368;
_ZN8Textures6stitchEv = __main_start + 0x00762390;
_ZN20TheEndPortalRenderer9getBufferEffff = __main_start + 0x00763168;
_ZN5TimerC1Ef = __main_start + 0x007636e4;
_ZN5Timer11advanceTimeEv = __main_start + 0x00763728;
_ZN11TitleScreenC1Ev = __main_start + 0x007638f4;
_ZN8Tooltips10staticCtorEv = __main_start + 0x00764454;
_ZN8TooltipsL19SetInteractTooltipsEN3std10shared_ptrI22MultiplayerLocalPlayerEEP16MultiPlayerLevelPK9HitResultN17InteractionResult18EInteractionResultE = __main_start + 0x007644ac;
_ZN8Tooltips12ResetTooltipEi18EControllerActions = __main_start + 0x007652c0;
_ZN4User10staticCtorEv = __main_start + 0x0076b2e8;
_ZN12GuiComponentD0Ev = __main_start + 0x00773434;
_ZN17SelectWorldScreenD2Ev = __main_start + 0x00773590;
_ZN17SelectWorldScreenD0Ev = __main_start + 0x007735dc;
j_free_1 = __main_start + 0x00780cc0;
j_malloc_0 = __main_start + 0x00781010;
j_free_2 = __main_start + 0x00796aac;
j_realloc = __main_start + 0x00796ab0;
_ZN19cCommerceNintendoNXC1Ev = __main_start + 0x007c41c0;
_ZN9PlayerUIDC1Ei = __main_start + 0x007e03f8;
_ZN17cCommerceNintendoC1Ev = __main_start + 0x007e208c;
Libz_SigloMiddlewareInfo = __main_start + 0x007eb430;
nvnLoadCProcs = __main_start + 0x007ebc10;
nnnifmGetCurrentProxySetting = __main_start + 0x009bad3c;
j_nnsocketGetHostByNameWithOptions_0 = __main_start + 0x009baed0;
__nnmusl_init_dso_0 = __main_start + 0x009c9a38;
__nnmusl_fini_dso_0 = __main_start + 0x009c9a48;
_Znam_0 = __main_start + 0x009c9a58;
_ZdaPv_0 = __main_start + 0x009c9a68;
_Znwm_0 = __main_start + 0x009c9a78;
_ZdlPv_0 = __main_start + 0x009c9a88;
_ZNSt3__112basic_stringIwNS_11char_traitsIwEENS_9allocatorIwEEE6__initEPKwm_0 = __main_start + 0x009c9a98;
_ZNSt3__112basic_stringIwNS_11char_traitsIwEENS_9allocatorIwEEED2Ev_0 = __main_start + 0x009c9aa8;
_ZNSt3__112basic_stringIwNS_11char_traitsIwEENS_9allocatorIwEEE6appendEPKw_0 = __main_start + 0x009c9ab8;
_ZNSt3__112basic_stringIwNS_11char_traitsIwEENS_9allocatorIwEEE6appendEPKwm_0 = __main_start + 0x009c9ac8;
_ZNSt3__112basic_stringIwNS_11char_traitsIwEENS_9allocatorIwEEEC1ERKS5__0 = __main_start + 0x009c9ad8;
_ZNSt3__119__shared_weak_count16__release_sharedEv_0 = __main_start + 0x009c9ae8;
_ZNSt3__112basic_stringIwNS_11char_traitsIwEENS_9allocatorIwEEE7reserveEm_0 = __main_start + 0x009c9af8;
_ZNSt3__119__shared_weak_count12__add_sharedEv_0 = __main_start + 0x009c9b08;
_ZNKSt3__120__vector_base_commonILb1EE20__throw_out_of_rangeEv_0 = __main_start + 0x009c9b18;
memmove_0 = __main_start + 0x009c9b28;
ceilf_0 = __main_start + 0x009c9b38;
__dynamic_cast_0 = __main_start + 0x009c9b48;
_ZNSt3__112basic_stringIwNS_11char_traitsIwEENS_9allocatorIwEEE6assignEPKw_0 = __main_start + 0x009c9b58;
floor_0 = __main_start + 0x009c9b68;
_ZNSt3__119__shared_weak_count4lockEv_0 = __main_start + 0x009c9b78;
sqrt_0 = __main_start + 0x009c9b88;
_ZNSt3__119__shared_weak_count10__add_weakEv_0 = __main_start + 0x009c9b98;
memset_0 = __main_start + 0x009c9ba8;
__cxa_guard_acquire_0 = __main_start + 0x009c9bb8;
__cxa_guard_release_0 = __main_start + 0x009c9bc8;
_ZNSt3__112basic_stringIwNS_11char_traitsIwEENS_9allocatorIwEEEaSERKS5__0 = __main_start + 0x009c9bd8;
_ZNSt3__119__shared_weak_count14__release_weakEv_0 = __main_start + 0x009c9be8;
sqrtf_0 = __main_start + 0x009c9bf8;
cosf_0 = __main_start + 0x009c9c08;
sinf_0 = __main_start + 0x009c9c18;
_ZNKSt3__120__vector_base_commonILb1EE20__throw_length_errorEv_0 = __main_start + 0x009c9c28;
memcpy_0 = __main_start + 0x009c9c38;
atan2_0 = __main_start + 0x009c9c48;
swprintf_0 = __main_start + 0x009c9c58;
_ZNSt3__112basic_stringIwNS_11char_traitsIwEENS_9allocatorIwEEEaSEw_0 = __main_start + 0x009c9c68;
_ZNSt3__18ios_base4initEPv_0 = __main_start + 0x009c9c78;
_ZNSt3__115basic_streambufIwNS_11char_traitsIwEEEC2Ev_0 = __main_start + 0x009c9c88;
_ZNSt3__113basic_ostreamIwNS_11char_traitsIwEEElsEi_0 = __main_start + 0x009c9c98;
_ZNKSt3__112basic_stringIwNS_11char_traitsIwEENS_9allocatorIwEEE2atEm_0 = __main_start + 0x009c9ca8;
wcstol_0 = __main_start + 0x009c9cb8;
_ZNSt3__112basic_stringIwNS_11char_traitsIwEENS_9allocatorIwEEE6insertEmPKw_0 = __main_start + 0x009c9cc8;
pow_0 = __main_start + 0x009c9cd8;
fabsf_0 = __main_start + 0x009c9ce8;
abs_0 = __main_start + 0x009c9cf8;
_ZNSt3__112basic_stringIwNS_11char_traitsIwEENS_9allocatorIwEEE2atEm_0 = __main_start + 0x009c9d08;
_ZNSt3__113basic_istreamIwNS_11char_traitsIwEEErsERl_0 = __main_start + 0x009c9d18;
_ZNKSt3__112basic_stringIwNS_11char_traitsIwEENS_9allocatorIwEEE7compareEmmPKwm_0 = __main_start + 0x009c9d28;
fmodf_0 = __main_start + 0x009c9d38;
_ZNSt3__113basic_ostreamIwNS_11char_traitsIwEEElsEb_0 = __main_start + 0x009c9d48;
__cxa_bad_typeid_0 = __main_start + 0x009c9d58;
memcmp_0 = __main_start + 0x009c9d68;
_ZNSt3__112basic_stringIwNS_11char_traitsIwEENS_9allocatorIwEEE9push_backEw_0 = __main_start + 0x009c9d78;
_ZN2nn4time23StandardUserSystemClock14GetCurrentTimeEPNS0_9PosixTimeE_0 = __main_start + 0x009c9d88;
_ZN2nn4time14ToCalendarTimeEPNS0_12CalendarTimeEPNS0_22CalendarAdditionalInfoERKNS0_9PosixTimeE_0 = __main_start + 0x009c9d98;
_ZN2nn4diag6detail7LogImplERKNS0_11LogMetaDataEPKcz_0 = __main_start + 0x009c9da8;
_ZNKSt3__112basic_stringIwNS_11char_traitsIwEENS_9allocatorIwEEE7compareEPKw_0 = __main_start + 0x009c9db8;
floorf_0 = __main_start + 0x009c9dc8;
_ZNSt3__112__next_primeEm_0 = __main_start + 0x009c9dd8;
abort_0 = __main_start + 0x009c9de8;
wcslen_0 = __main_start + 0x009c9df8;
_ZNSt3__119__shared_weak_countD2Ev_0 = __main_start + 0x009c9e08;
wmemcmp_0 = __main_start + 0x009c9e18;
_ZNSt3__19basic_iosIwNS_11char_traitsIwEEED2Ev_0 = __main_start + 0x009c9e28;
_ZNSt3__112basic_stringIwNS_11char_traitsIwEENS_9allocatorIwEEE6resizeEmw_0 = __main_start + 0x009c9e38;
_ZNSt3__115basic_streambufIwNS_11char_traitsIwEEED2Ev_0 = __main_start + 0x009c9e48;
_ZNKSt3__121__basic_string_commonILb1EE20__throw_length_errorEv_0 = __main_start + 0x009c9e58;
_ZNSt3__113basic_ostreamIwNS_11char_traitsIwEEED2Ev_0 = __main_start + 0x009c9e68;
_ZNSt3__113basic_istreamIwNS_11char_traitsIwEEED2Ev_0 = __main_start + 0x009c9e78;
_ZNSt3__112basic_stringIcNS_11char_traitsIcEENS_9allocatorIcEEE6__initEPKcm_0 = __main_start + 0x009c9e88;
_ZNSt3__112basic_stringIcNS_11char_traitsIcEENS_9allocatorIcEEED2Ev_0 = __main_start + 0x009c9e98;
_ZNSt3__112basic_stringIwNS_11char_traitsIwEENS_9allocatorIwEEE6__initEPKwmm_0 = __main_start + 0x009c9ea8;
fmod_0 = __main_start + 0x009c9eb8;
sprintf_0 = __main_start + 0x009c9ec8;
_ZNSt3__112basic_stringIwNS_11char_traitsIwEENS_9allocatorIwEEEC1ERKS5_mmRKS4__0 = __main_start + 0x009c9ed8;
swscanf_0 = __main_start + 0x009c9ee8;
fabs_0 = __main_start + 0x009c9ef8;
_ZNSt3__112basic_stringIcNS_11char_traitsIcEENS_9allocatorIcEEEaSERKS5__0 = __main_start + 0x009c9f08;
_ZNSt3__113basic_ostreamIwNS_11char_traitsIwEEElsEs_0 = __main_start + 0x009c9f18;
sin_0 = __main_start + 0x009c9f28;
cos_0 = __main_start + 0x009c9f38;
acosf_0 = __main_start + 0x009c9f48;
strlen_0 = __main_start + 0x009c9f58;
_ZNKSt3__112basic_stringIwNS_11char_traitsIwEENS_9allocatorIwEEE5rfindEwm_0 = __main_start + 0x009c9f68;
wcsncmp_0 = __main_start + 0x009c9f78;
wcstombs_0 = __main_start + 0x009c9f88;
_ZNSt3__113basic_istreamIwNS_11char_traitsIwEEErsERm_0 = __main_start + 0x009c9f98;
_ZNSt3__113basic_ostreamIwNS_11char_traitsIwEEElsEl_0 = __main_start + 0x009c9fa8;
_ZNSt3__113basic_ostreamIwNS_11char_traitsIwEEE6sentryC1ERS3__0 = __main_start + 0x009c9fb8;
_ZNKSt3__18ios_base6getlocEv_0 = __main_start + 0x009c9fc8;
_ZNKSt3__16locale9use_facetERNS0_2idE_0 = __main_start + 0x009c9fd8;
_ZNSt3__16localeD1Ev_0 = __main_start + 0x009c9fe8;
_ZNSt3__18ios_base5clearEj_0 = __main_start + 0x009c9ff8;
_ZNSt3__113basic_ostreamIwNS_11char_traitsIwEEE6sentryD1Ev_0 = __main_start + 0x009ca008;
_ZSt17__throw_bad_allocv_0 = __main_start + 0x009ca018;
_ZNSt3__113basic_istreamIwNS_11char_traitsIwEEErsERi_0 = __main_start + 0x009ca028;
_ZNSt3__113basic_ostreamIwNS_11char_traitsIwEEElsEm_0 = __main_start + 0x009ca038;
_ZNSt3__112basic_stringIwNS_11char_traitsIwEENS_9allocatorIwEEE6__initEmw_0 = __main_start + 0x009ca048;
powf_0 = __main_start + 0x009ca058;
round_0 = __main_start + 0x009ca068;
_ZNSt3__113basic_ostreamIwNS_11char_traitsIwEEE3putEw_0 = __main_start + 0x009ca078;
_ZNSt3__113basic_ostreamIwNS_11char_traitsIwEEE5flushEv_0 = __main_start + 0x009ca088;
strcpy_0 = __main_start + 0x009ca098;
strcat_0 = __main_start + 0x009ca0a8;
_ZNSt3__112basic_stringIwNS_11char_traitsIwEENS_9allocatorIwEEE6insertEmPKwm_0 = __main_start + 0x009ca0b8;
ceil_0 = __main_start + 0x009ca0c8;
atanf_0 = __main_start + 0x009ca0d8;
atan2f_0 = __main_start + 0x009ca0e8;
_ZNSt3__113basic_istreamIwNS_11char_traitsIwEEErsERd_0 = __main_start + 0x009ca0f8;
_ZNKSt3__112basic_stringIwNS_11char_traitsIwEENS_9allocatorIwEEE4findEwm_0 = __main_start + 0x009ca108;
_ZNSt3__113basic_istreamIwNS_11char_traitsIwEEErsERj_0 = __main_start + 0x009ca118;
atan_0 = __main_start + 0x009ca128;
log_0 = __main_start + 0x009ca138;
wmemchr_0 = __main_start + 0x009ca148;
_ZNSt3__112basic_stringIwNS_11char_traitsIwEENS_9allocatorIwEEE7replaceEmmPKwm_0 = __main_start + 0x009ca158;
_ZNSt3__113basic_ostreamIwNS_11char_traitsIwEEElsEd_0 = __main_start + 0x009ca168;
_ZNSt3__113basic_ostreamIwNS_11char_traitsIwEEElsEj_0 = __main_start + 0x009ca178;
tolower_0 = __main_start + 0x009ca188;
mbstowcs_0 = __main_start + 0x009ca198;
_ZNSt3__113basic_istreamIwNS_11char_traitsIwEEE6sentryC1ERS3_b_0 = __main_start + 0x009ca1a8;
_ZNSt3__112basic_stringIwNS_11char_traitsIwEENS_9allocatorIwEEE5eraseEmm_0 = __main_start + 0x009ca1b8;
vswprintf_0 = __main_start + 0x009ca1c8;
vsprintf_0 = __main_start + 0x009ca1d8;
_ZNSt3__113basic_istreamIwNS_11char_traitsIwEEErsERb_0 = __main_start + 0x009ca1e8;
_ZN2nn2os13GetSystemTickEv_0 = __main_start + 0x009ca1f8;
_ZN2nn2os17ConvertToTimeSpanENS0_4TickE_0 = __main_start + 0x009ca208;
qsort_0 = __main_start + 0x009ca218;
strcmp_0 = __main_start + 0x009ca228;
_ZNSt3__112basic_stringIcNS_11char_traitsIcEENS_9allocatorIcEEE6insertEmPKc_0 = __main_start + 0x009ca238;
_ZNSt3__112basic_stringIcNS_11char_traitsIcEENS_9allocatorIcEEE6appendEPKc_0 = __main_start + 0x009ca248;
_ZNSt3__112basic_stringIcNS_11char_traitsIcEENS_9allocatorIcEEEC1ERKS5__0 = __main_start + 0x009ca258;
wcscmp_0 = __main_start + 0x009ca268;
_ZNKSt3__112basic_stringIcNS_11char_traitsIcEENS_9allocatorIcEEE7compareEmmPKcm_0 = __main_start + 0x009ca278;
atoi_0 = __main_start + 0x009ca288;
_ZNSt3__112basic_stringIcNS_11char_traitsIcEENS_9allocatorIcEEE6assignEPKc_0 = __main_start + 0x009ca298;
_ZNSt3__112basic_stringIcNS_11char_traitsIcEENS_9allocatorIcEEE6__initEPKcmm_0 = __main_start + 0x009ca2a8;
_ZNSt3__112basic_stringIcNS_11char_traitsIcEENS_9allocatorIcEEE6appendEPKcm_0 = __main_start + 0x009ca2b8;
strncpy_0 = __main_start + 0x009ca2c8;
snprintf_0 = __main_start + 0x009ca2d8;
strncmp_0 = __main_start + 0x009ca2e8;
strtol_0 = __main_start + 0x009ca2f8;
atof_0 = __main_start + 0x009ca308;
labs_0 = __main_start + 0x009ca318;
_ZNSt3__113basic_ostreamIwNS_11char_traitsIwEEElsEt_0 = __main_start + 0x009ca328;
_ZNSt3__113basic_ostreamIwNS_11char_traitsIwEEElsEPKv_0 = __main_start + 0x009ca338;
_ZNSt3__113basic_istreamIwNS_11char_traitsIwEEErsERt_0 = __main_start + 0x009ca348;
_ZNSt3__113basic_istreamIwNS_11char_traitsIwEEErsERf_0 = __main_start + 0x009ca358;
_ZNSt3__113basic_ostreamIwNS_11char_traitsIwEEElsEf_0 = __main_start + 0x009ca368;
_ZNSt3__112basic_stringIwNS_11char_traitsIwEENS_9allocatorIwEEE7replaceEmmPKw_0 = __main_start + 0x009ca378;
sscanf_0 = __main_start + 0x009ca388;
_ZNSt3__16__sortIRNS_6__lessIiiEEPiEEvT0_S5_T__0 = __main_start + 0x009ca398;
wcscpy_0 = __main_start + 0x009ca3a8;
_ZNKSt3__112basic_stringIwNS_11char_traitsIwEENS_9allocatorIwEEE4findEPKwmm_0 = __main_start + 0x009ca3b8;
wcsncpy_0 = __main_start + 0x009ca3c8;
_ZN2nn3ldn15MakeIpv4AddressEhhhh_0 = __main_start + 0x009ca3d8;
_ZN2nn2oe18GetDesiredLanguageEv_0 = __main_start + 0x009ca3e8;
_ZN2nn2os9LockMutexEPNS0_9MutexTypeE_0 = __main_start + 0x009ca3f8;
_ZN2nn2os11UnlockMutexEPNS0_9MutexTypeE_0 = __main_start + 0x009ca408;
_ZN2nn2os11SleepThreadENS_8TimeSpanE_0 = __main_start + 0x009ca418;
_ZNSt3__112basic_stringIcNS_11char_traitsIcEENS_9allocatorIcEEE7reserveEm_0 = __main_start + 0x009ca428;
_ZN2nn2fs8OpenFileEPNS0_10FileHandleEPKci_0 = __main_start + 0x009ca438;
_ZN2nn2fs11GetFileSizeEPlNS0_10FileHandleE_0 = __main_start + 0x009ca448;
_ZN2nn2fs8ReadFileEPmNS0_10FileHandleElPvmRKNS0_10ReadOptionE_0 = __main_start + 0x009ca458;
_ZN2nn2fs9CloseFileENS0_10FileHandleE_0 = __main_start + 0x009ca468;
_ZN2nn2os15InitializeMutexEPNS0_9MutexTypeEbi_0 = __main_start + 0x009ca478;
strtoll_0 = __main_start + 0x009ca488;
_ZN2nn3mem17StandardAllocator8AllocateEm_0 = __main_start + 0x009ca498;
_ZN2nn3mem17StandardAllocator4FreeEPv_0 = __main_start + 0x009ca4a8;
_ZN2nn3mem17StandardAllocator10ReallocateEPvm_0 = __main_start + 0x009ca4b8;
_ZN2nn2fs7UnmountEPKc_0 = __main_start + 0x009ca4c8;
_ZN2nn2fs14CloseDirectoryENS0_15DirectoryHandleE_0 = __main_start + 0x009ca4d8;
_ZN2nn2fs13OpenDirectoryEPNS0_15DirectoryHandleEPKci_0 = __main_start + 0x009ca4e8;
_ZN2nn2fs13ReadDirectoryEPlPNS0_14DirectoryEntryENS0_15DirectoryHandleEl_0 = __main_start + 0x009ca4f8;
_ZN2nn3aoc16ListAddOnContentEPiii_0 = __main_start + 0x009ca508;
_ZN2nn2fs31QueryMountAddOnContentCacheSizeEPmi_0 = __main_start + 0x009ca518;
_ZN2nn2fs17MountAddOnContentEPKciPvm_0 = __main_start + 0x009ca528;
_ZNSt3__112basic_stringIcNS_11char_traitsIcEENS_9allocatorIcEEEC1ERKS5_mmRKS4__0 = __main_start + 0x009ca538;
_ZNSt3__112basic_stringIcNS_11char_traitsIcEENS_9allocatorIcEEE9push_backEc_0 = __main_start + 0x009ca548;
_ZN2nn2os12TryLockMutexEPNS0_9MutexTypeE_0 = __main_start + 0x009ca558;
_ZN2nn2os13FinalizeMutexEPNS0_9MutexTypeE_0 = __main_start + 0x009ca568;
_ZN2nn6socket6SelectEiP6fd_setS2_S2_P7timeval_0 = __main_start + 0x009ca578;
_ZN2nn2os16SendMessageQueueEPNS0_16MessageQueueTypeEm_0 = __main_start + 0x009ca588;
_Exit_0 = __main_start + 0x009ca598;
_ZN2nn7account16ShowUserSelectorEPNS0_3UidERKNS0_21UserSelectionSettingsE_0 = __main_start + 0x009ca5a8;
_ZN2nn3mem17StandardAllocator8AllocateEmm_0 = __main_start + 0x009ca5b8;
_ZN2nn2os15QueryMemoryInfoEPNS0_10MemoryInfoE_0 = __main_start + 0x009ca5c8;
_ZN2nn2os17SetMemoryHeapSizeEm_0 = __main_start + 0x009ca5d8;
_ZN2nn2os19AllocateMemoryBlockEPmm_0 = __main_start + 0x009ca5e8;
_ZN2nn3mem17StandardAllocatorC1Ev_0 = __main_start + 0x009ca5f8;
_ZN2nn3mem17StandardAllocator10InitializeEPvm_0 = __main_start + 0x009ca608;
_ZN2nn2os32SetMemoryAllocatorForThreadLocalEPFPvmmEPFvS1_mE_0 = __main_start + 0x009ca618;
_ZN2nn2oe27SetPerformanceConfigurationENS0_15PerformanceModeEi_0 = __main_start + 0x009ca628;
_ZN2nn2oe18GetPerformanceModeEv_0 = __main_start + 0x009ca638;
_ZN2nn2oe44SetPerformanceModeChangedNotificationEnabledEb_0 = __main_start + 0x009ca648;
_ZN2nn2oe20SetFocusHandlingModeENS0_17FocusHandlingModeE_0 = __main_start + 0x009ca658;
_ZN2nn2oe28SetResumeNotificationEnabledEb_0 = __main_start + 0x009ca668;
_ZN2nn4nifm10InitializeEv_0 = __main_start + 0x009ca678;
_ZN2nn4time10InitializeEv_0 = __main_start + 0x009ca688;
_ZN2nn2oe10InitializeEv_0 = __main_start + 0x009ca698;
_ZN2nn2fs22QueryMountRomCacheSizeEPm_0 = __main_start + 0x009ca6a8;
_ZnamRKSt9nothrow_t_0 = __main_start + 0x009ca6b8;
_ZN2nn2fs8MountRomEPKcPvm_0 = __main_start + 0x009ca6c8;
_ZN2nn2os22InitializeMessageQueueEPNS0_16MessageQueueTypeEPmm_0 = __main_start + 0x009ca6d8;
_ZN2nn3aoc31GetAddOnContentListChangedEventEPNS_2os11SystemEventE_0 = __main_start + 0x009ca6e8;
_ZN2nn2oe25TryPopNotificationMessageEPj_0 = __main_start + 0x009ca6f8;
_ZN2nn2oe20GetCurrentFocusStateEv_0 = __main_start + 0x009ca708;
_ZN2nn2os18TryWaitSystemEventEPNS0_15SystemEventTypeE_0 = __main_start + 0x009ca718;
_ZN2nn2os18DestroySystemEventEPNS0_15SystemEventTypeE_0 = __main_start + 0x009ca728;
_ZN2nn8settings12LanguageCode4MakeENS0_8LanguageE_0 = __main_start + 0x009ca738;
_ZN2nn8settingseqERKNS0_12LanguageCodeES3__0 = __main_start + 0x009ca748;
_ZNSt3__115basic_streambufIcNS_11char_traitsIcEEEC2Ev_0 = __main_start + 0x009ca758;
_ZNSt3__113basic_istreamIcNS_11char_traitsIcEEErsERj_0 = __main_start + 0x009ca768;
_ZNSt3__19basic_iosIcNS_11char_traitsIcEEED2Ev_0 = __main_start + 0x009ca778;
_ZNSt3__112basic_stringIcNS_11char_traitsIcEENS_9allocatorIcEEE6resizeEmc_0 = __main_start + 0x009ca788;
_ZNSt3__115basic_streambufIcNS_11char_traitsIcEEED2Ev_0 = __main_start + 0x009ca798;
_ZNSt3__113basic_ostreamIcNS_11char_traitsIcEEE6sentryC1ERS3__0 = __main_start + 0x009ca7a8;
_ZNSt3__113basic_ostreamIcNS_11char_traitsIcEEE6sentryD1Ev_0 = __main_start + 0x009ca7b8;
_ZNSt3__112basic_stringIcNS_11char_traitsIcEENS_9allocatorIcEEE6__initEmc_0 = __main_start + 0x009ca7c8;
_ZNSt3__114basic_iostreamIcNS_11char_traitsIcEEED2Ev_0 = __main_start + 0x009ca7d8;
acos_0 = __main_start + 0x009ca7e8;
_ZN2nn2os11YieldThreadEv_0 = __main_start + 0x009ca7f8;
ldexpf_0 = __main_start + 0x009ca808;
_ZN2nn3hid14InitializeNpadEv_0 = __main_start + 0x009ca818;
_ZN2nn3hid24SetSupportedNpadStyleSetENS_4util10BitFlagSetILi32ENS0_12NpadStyleTagEEE_0 = __main_start + 0x009ca828;
_ZN2nn3hid22SetSupportedNpadIdTypeEPKjm_0 = __main_start + 0x009ca838;
_ZN2nn3hid21InitializeTouchScreenEv_0 = __main_start + 0x009ca848;
_ZN2nn3hid16GetDebugPadStateEPNS0_13DebugPadStateE_0 = __main_start + 0x009ca858;
_ZN2nn3hid20GetTouchScreenStatesILm16EEEiPNS0_16TouchScreenStateIXT_EEEi_0 = __main_start + 0x009ca868;
_ZN2nn3hid15GetNpadStyleSetERKj_0 = __main_start + 0x009ca878;
_ZN2nn3hid12GetNpadStateEPNS0_17NpadHandheldStateERKj_0 = __main_start + 0x009ca888;
_ZN2nn3hid12GetNpadStateEPNS0_16NpadFullKeyStateERKj_0 = __main_start + 0x009ca898;
_ZN2nn3hid12GetNpadStateEPNS0_16NpadJoyDualStateERKj_0 = __main_start + 0x009ca8a8;
_ZN2nn3mem17StandardAllocator8FinalizeEv_0 = __main_start + 0x009ca8b8;
_ZN2nn5swkbd27GetRequiredStringBufferSizeEv_0 = __main_start + 0x009ca8c8;
_ZN2nn5swkbd10MakePresetEPNS0_14KeyboardConfigENS0_6PresetE_0 = __main_start + 0x009ca8d8;
_ZN2nn5swkbd13SetHeaderTextEPNS0_14KeyboardConfigEPKDs_0 = __main_start + 0x009ca8e8;
_ZN2nn5swkbd25GetRequiredWorkBufferSizeEb_0 = __main_start + 0x009ca8f8;
_ZN2nn5swkbd14SetInitialTextEPNS0_15ShowKeyboardArgEPKDs_0 = __main_start + 0x009ca908;
_ZN2nn5swkbd12ShowKeyboardEPNS0_6StringERKNS0_15ShowKeyboardArgE_0 = __main_start + 0x009ca918;
_ZN2nn2os13ConvertToTickENS_8TimeSpanE_0 = __main_start + 0x009ca928;
_ZN2nn7account16LoadProfileImageEPmPvmRKNS0_3UidE_0 = __main_start + 0x009ca938;
_ZN2nn7account11GetNicknameEPNS0_8NicknameERKNS0_3UidE_0 = __main_start + 0x009ca948;
_ZN2nn7account32IsNetworkServiceAccountAvailableEPbRKNS0_10UserHandleE_0 = __main_start + 0x009ca958;
_ZN2nn7account26GetNetworkServiceAccountIdEPNS0_23NetworkServiceAccountIdERKNS0_10UserHandleE_0 = __main_start + 0x009ca968;
_ZN2nn7account36EnsureNetworkServiceAccountAvailableERKNS0_10UserHandleE_0 = __main_start + 0x009ca978;
_ZN2nn7account8OpenUserEPNS0_10UserHandleERKNS0_3UidE_0 = __main_start + 0x009ca988;
_ZN2nn7account10InitializeEv_0 = __main_start + 0x009ca998;
_ZN2nn7account19OpenPreselectedUserEPNS0_10UserHandleE_0 = __main_start + 0x009ca9a8;
_ZN2nn7account9GetUserIdEPNS0_3UidERKNS0_10UserHandleE_0 = __main_start + 0x009ca9b8;
_ZN2nn2fs14EnsureSaveDataERKNS_7account3UidE_0 = __main_start + 0x009ca9c8;
_ZN2nn2fs18IsSaveDataExistingERKNS_7account3UidE_0 = __main_start + 0x009ca9d8;
_ZN2nn2fs13MountSaveDataEPKcRKNS_7account3UidE_0 = __main_start + 0x009ca9e8;
_ZN2nn7account9CloseUserERKNS0_10UserHandleE_0 = __main_start + 0x009ca9f8;
_ZN2nn4pctl32CheckFreeCommunicationPermissionEb_0 = __main_start + 0x009caa08;
_ZN2nn7friends12UserPresenceC1Ev_0 = __main_start + 0x009caa18;
_ZN2nn7friends12UserPresence10InitializeERKNS_7account3UidE_0 = __main_start + 0x009caa28;
_ZN2nn4util24ConvertStringUtf32ToUtf8EPciPKj_0 = __main_start + 0x009caa38;
_ZN2nn7friends12UserPresence14SetDescriptionEPKc_0 = __main_start + 0x009caa48;
_ZN2nn7friends12UserPresence6CommitEv_0 = __main_start + 0x009caa58;
_ZN2nn7friends12UserPresence11SetAppValueEPKcS3__0 = __main_start + 0x009caa68;
_ZNK2nn7friends14FriendPresence11GetAppValueEPKc_0 = __main_start + 0x009caa78;
memalign_0 = __main_start + 0x009caa88;
_ZN2nv20SetGraphicsAllocatorEPFPvmmS0_EPFvS0_S0_EPFS0_S0_mS0_ES0__0 = __main_start + 0x009caa98;
_ZN2nv18InitializeGraphicsEPvm_0 = __main_start + 0x009caaa8;
_ZN2nv28SetGraphicsDevtoolsAllocatorEPFPvmmS0_EPFvS0_S0_EPFS0_S0_mS0_ES0__0 = __main_start + 0x009caab8;
_ZN2nn2vi10InitializeEv_0 = __main_start + 0x009caac8;
_ZN2nn2vi18OpenDefaultDisplayEPPNS0_7DisplayE_0 = __main_start + 0x009caad8;
_ZN2nn4diag6detail18OnAssertionFailureENS0_13AssertionTypeEPKcS4_S4_i_0 = __main_start + 0x009caae8;
_ZN2nn2vi11CreateLayerEPPNS0_5LayerEPNS0_7DisplayE_0 = __main_start + 0x009caaf8;
_ZN2nn2vi19SetLayerScalingModeEPNS0_5LayerENS0_11ScalingModeE_0 = __main_start + 0x009cab08;
_ZN2nn2vi15GetNativeWindowEPPvPNS0_5LayerE_0 = __main_start + 0x009cab18;
nvnBootstrapLoader_0 = __main_start + 0x009cab28;
_ZN2nn2fs10CreateFileEPKcl_0 = __main_start + 0x009cab38;
_ZN2nn2fs9WriteFileENS0_10FileHandleElPKvmRKNS0_11WriteOptionE_0 = __main_start + 0x009cab48;
_ZN2nn2fs14CommitSaveDataEPKc_0 = __main_start + 0x009cab58;
_ZN2nn2fs8ReadFileEPmNS0_10FileHandleElPvm_0 = __main_start + 0x009cab68;
_ZN2nn4diag6detail9AbortImplEPKcS3_S3_iPKNS_6ResultES3_z_0 = __main_start + 0x009cab78;
_ZN2nn2fs10DeleteFileEPKc_0 = __main_start + 0x009cab88;
_ZN2nn2fs15CreateDirectoryEPKc_0 = __main_start + 0x009cab98;
_ZN2nn2fs15DeleteDirectoryEPKc_0 = __main_start + 0x009caba8;
_ZN2nn2fs12GetEntryTypeEPNS0_18DirectoryEntryTypeEPKc_0 = __main_start + 0x009cabb8;
fread_0 = __main_start + 0x009cabc8;
strcasecmp_0 = __main_start + 0x009cabd8;
setjmp_0 = __main_start + 0x009cabe8;
fclose_0 = __main_start + 0x009cabf8;
fprintf_0 = __main_start + 0x009cac08;
longjmp_0 = __main_start + 0x009cac18;
fwrite_0 = __main_start + 0x009cac28;
fflush_0 = __main_start + 0x009cac38;
wcsrtombs_0 = __main_start + 0x009cac48;
_ZN2nn7friends6FriendC1Ev_0 = __main_start + 0x009cac58;
_ZN2nn7friends13GetFriendListEPiPNS0_6FriendERKNS_7account3UidEiiRKNS0_12FriendFilterE_0 = __main_start + 0x009cac68;
_ZNK2nn7friends6Friend12GetAccountIdEv_0 = __main_start + 0x009cac78;
_ZN2nn2ec24ShowShopAddOnContentListENS_13ApplicationIdERKNS_7account10UserHandleE_0 = __main_start + 0x009cac88;
_ZN2nn2ec30ShowShopApplicationInformationENS_13ApplicationIdERKNS_7account10UserHandleE_0 = __main_start + 0x009cac98;
_ZN2nn3err9ErrorCode19GetInvalidErrorCodeEv_0 = __main_start + 0x009caca8;
_ZN2nn3ldn8GetStateEv_0 = __main_start + 0x009cacb8;
_ZN2nn3ldn10InitializeEv_0 = __main_start + 0x009cacc8;
_ZN2nn3err9ShowErrorENS_6ResultE_0 = __main_start + 0x009cacd8;
_ZNK2nn3err9ErrorCode7IsValidEv_0 = __main_start + 0x009cace8;
_ZN2nn3err21IsNetworkServiceErrorENS0_9ErrorCodeE_0 = __main_start + 0x009cacf8;
_ZN2nn3err23ShowNetworkServiceErrorENS0_9ErrorCodeE_0 = __main_start + 0x009cad08;
_ZN2nn3err9ShowErrorENS0_9ErrorCodeE_0 = __main_start + 0x009cad18;
_ZN2nn3ldn8FinalizeEv_0 = __main_start + 0x009cad28;
_ZN2nn4nifm22GetCurrentIpConfigInfoEP7in_addrS2_S2_S2_S2__0 = __main_start + 0x009cad38;
_ZN2nn4nifm18IsNetworkAvailableEv_0 = __main_start + 0x009cad48;
_ZN2nn4nifm20SubmitNetworkRequestEv_0 = __main_start + 0x009cad58;
_ZN2nn4nifm19SetLocalNetworkModeEb_0 = __main_start + 0x009cad68;
_ZN2nn7account12AsyncContextC1Ev_0 = __main_start + 0x009cad78;
_ZN2nn7account44EnsureNetworkServiceAccountIdTokenCacheAsyncEPNS0_12AsyncContextERKNS0_10UserHandleE_0 = __main_start + 0x009cad88;
_ZN2nn7account12AsyncContext14GetSystemEventEPNS_2os11SystemEventE_0 = __main_start + 0x009cad98;
_ZN2nn7account12AsyncContextD1Ev_0 = __main_start + 0x009cada8;
_ZN2nn2os15WaitSystemEventEPNS0_15SystemEventTypeE_0 = __main_start + 0x009cadb8;
_ZN2nn4nifm22IsNetworkRequestOnHoldEv_0 = __main_start + 0x009cadc8;
_ZN2nn4nifm26HandleNetworkRequestResultEv_0 = __main_start + 0x009cadd8;
_ZN2nn7friends14FriendPresenceC1Ev_0 = __main_start + 0x009cade8;
_ZNK2nn7friends6Friend11GetPresenceEv_0 = __main_start + 0x009cadf8;
_ZNK2nn7friends14FriendPresence9GetStatusEv_0 = __main_start + 0x009cae08;
_ZNK2nn7friends6Friend11GetNicknameEv_0 = __main_start + 0x009cae18;
_ZN2nn6socket10InitializeERKNS0_6ConfigE_0 = __main_start + 0x009cae28;
_ZN2nn6socket8FinalizeEv_0 = __main_start + 0x009cae38;
_ZN2nn2os15InitializeEventEPNS0_9EventTypeEbNS0_14EventClearModeE_0 = __main_start + 0x009cae48;
_ZN2nn2os11SignalEventEPNS0_9EventTypeE_0 = __main_start + 0x009cae58;
_ZN2nn2os10ClearEventEPNS0_9EventTypeE_0 = __main_start + 0x009cae68;
_ZN2nn2os14TimedWaitEventEPNS0_9EventTypeENS_8TimeSpanE_0 = __main_start + 0x009cae78;
_ZN2nn2os9WaitEventEPNS0_9EventTypeE_0 = __main_start + 0x009cae88;
_ZN2nn2os16GetCurrentThreadEv_0 = __main_start + 0x009cae98;
_ZN2nn2os12CreateThreadEPNS0_10ThreadTypeEPFvPvES3_S3_mii_0 = __main_start + 0x009caea8;
_ZN2nn2os12CreateThreadEPNS0_10ThreadTypeEPFvPvES3_S3_mi_0 = __main_start + 0x009caeb8;
_ZN2nn2os13SetThreadNameEPNS0_10ThreadTypeEPKc_0 = __main_start + 0x009caec8;
_ZN2nn2os13DestroyThreadEPNS0_10ThreadTypeE_0 = __main_start + 0x009caed8;
_ZN2nn2os11StartThreadEPNS0_10ThreadTypeE_0 = __main_start + 0x009caee8;
_ZN2nn2os17SetThreadCoreMaskEPNS0_10ThreadTypeEim_0 = __main_start + 0x009caef8;
_ZN2nn2os20ChangeThreadPriorityEPNS0_10ThreadTypeEi_0 = __main_start + 0x009caf08;
_ZNK2nn3mem17StandardAllocator9GetSizeOfEPKv_0 = __main_start + 0x009caf18;
_ZN2nn4util11ReferSymbolEPKv_0 = __main_start + 0x009caf28;
vsnprintf_0 = __main_start + 0x009caf38;
_ZN2nn2os10WaitThreadEPNS0_10ThreadTypeE_0 = __main_start + 0x009caf48;
_ZN2nn2os19GenerateRandomBytesEPvm_0 = __main_start + 0x009caf58;
_ZN2nn2os26TimedWaitConditionVariableEPNS0_21ConditionVariableTypeEPNS0_9MutexTypeENS_8TimeSpanE_0 = __main_start + 0x009caf68;
_ZN2nn2os21WaitConditionVariableEPNS0_21ConditionVariableTypeEPNS0_9MutexTypeE_0 = __main_start + 0x009caf78;
_ZN2nn2os26BroadcastConditionVariableEPNS0_21ConditionVariableTypeE_0 = __main_start + 0x009caf88;
_ZN2nn2os23SignalConditionVariableEPNS0_21ConditionVariableTypeE_0 = __main_start + 0x009caf98;
strstr_0 = __main_start + 0x009cafa8;
toupper_0 = __main_start + 0x009cafb8;
strtoull_0 = __main_start + 0x009cafc8;
_ZN2nn2os22GetSystemTickFrequencyEv_0 = __main_start + 0x009cafd8;
_ZN2nn4time8FinalizeEv_0 = __main_start + 0x009cafe8;
_ZN2nn2os27InitializeConditionVariableEPNS0_21ConditionVariableTypeE_0 = __main_start + 0x009caff8;
_ZN2nn2os25FinalizeConditionVariableEPNS0_21ConditionVariableTypeE_0 = __main_start + 0x009cb008;
_ZN2nn6crypto6detail7Md5Impl10InitializeEv_0 = __main_start + 0x009cb018;
_ZN2nn6crypto6detail7Md5Impl6UpdateEPKvm_0 = __main_start + 0x009cb028;
_ZN2nn6crypto6detail7Md5Impl7GetHashEPvm_0 = __main_start + 0x009cb038;
_ZN2nn6crypto16GenerateSha1HashEPvmPKvm_0 = __main_start + 0x009cb048;
_ZN2nn3nsd9ResolveExEPNS0_4FqdnERKS1__0 = __main_start + 0x009cb058;
_ZN2nn7account12AsyncContext7HasDoneEPb_0 = __main_start + 0x009cb068;
_ZN2nn7account12AsyncContext6CancelEv_0 = __main_start + 0x009cb078;
_ZN2nn2os20TimedWaitSystemEventEPNS0_15SystemEventTypeENS_8TimeSpanE_0 = __main_start + 0x009cb088;
_ZN2nn7account12AsyncContext9GetResultEv_0 = __main_start + 0x009cb098;
_ZN2nn7account37LoadNetworkServiceAccountIdTokenCacheEPmPcmRKNS0_10UserHandleE_0 = __main_start + 0x009cb0a8;
_ZN2nn4util9VSNPrintfEPcmPKcSt9__va_list_0 = __main_start + 0x009cb0b8;
_ZN2nn2os11GetTlsValueENS0_7TlsSlotE_0 = __main_start + 0x009cb0c8;
_ZN2nn2os20GetCurrentCoreNumberEv_0 = __main_start + 0x009cb0d8;
_ZN2nn4util8SNPrintfEPcmPKcz_0 = __main_start + 0x009cb0e8;
_ZN2nn7friends14AddPlayHistoryERKNS_7account3UidERKNS0_26PlayHistoryRegistrationKeyERKNS0_15InAppScreenNameESA__0 = __main_start + 0x009cb0f8;
_ZN2nn7account16GetUserExistenceEPbRKNS0_3UidE_0 = __main_start + 0x009cb108;
_ZN2nn7friends29GetPlayHistoryRegistrationKeyEPNS0_26PlayHistoryRegistrationKeyERKNS_7account3UidEb_0 = __main_start + 0x009cb118;
_ZN2nn2os18SdkAllocateTlsSlotEPNS0_7TlsSlotEPFvmE_0 = __main_start + 0x009cb128;
_ZN2nn2os11FreeTlsSlotENS0_7TlsSlotE_0 = __main_start + 0x009cb138;
_ZN2nn2os13FinalizeEventEPNS0_9EventTypeE_0 = __main_start + 0x009cb148;
_ZN2nn2os20FinalizeMessageQueueEPNS0_16MessageQueueTypeE_0 = __main_start + 0x009cb158;
_ZN2nn2os19TrySendMessageQueueEPNS0_16MessageQueueTypeEm_0 = __main_start + 0x009cb168;
_ZN2nn2os22TryReceiveMessageQueueEPmPNS0_16MessageQueueTypeE_0 = __main_start + 0x009cb178;
_ZN2nn2os19ReceiveMessageQueueEPmPNS0_16MessageQueueTypeE_0 = __main_start + 0x009cb188;
_ZN2nn2os18TryJamMessageQueueEPNS0_16MessageQueueTypeEm_0 = __main_start + 0x009cb198;
_ZN2nn2os15JamMessageQueueEPNS0_16MessageQueueTypeEm_0 = __main_start + 0x009cb1a8;
_ZN2nn2os11SetTlsValueENS0_7TlsSlotEm_0 = __main_start + 0x009cb1b8;
_ZN2nn2os26GetThreadAvailableCoreMaskEv_0 = __main_start + 0x009cb1c8;
_ZN2nn2os17GetThreadPriorityEPKNS0_10ThreadTypeE_0 = __main_start + 0x009cb1d8;
_ZN2nn2os19GetCurrentStackInfoEPmS1__0 = __main_start + 0x009cb1e8;
_ZN2nn3ldn14GetIpv4AddressEPNS0_11Ipv4AddressEPNS0_10SubnetMaskE_0 = __main_start + 0x009cb1f8;
_ZN2nn3ldn22AttachStateChangeEventEPNS_2os15SystemEventTypeE_0 = __main_start + 0x009cb208;
_ZN2nn3ldn14GetNetworkInfoEPNS0_11NetworkInfoE_0 = __main_start + 0x009cb218;
_ZN2nn3ldn15OpenAccessPointEv_0 = __main_start + 0x009cb228;
_ZN2nn3ldn16CloseAccessPointEv_0 = __main_start + 0x009cb238;
_ZN2nn3ldn11OpenStationEv_0 = __main_start + 0x009cb248;
_ZN2nn3ldn12CloseStationEv_0 = __main_start + 0x009cb258;
_ZN2nn3ldn22SetStationAcceptPolicyENS0_12AcceptPolicyE_0 = __main_start + 0x009cb268;
_ZN2nn3ldn6RejectENS0_11Ipv4AddressE_0 = __main_start + 0x009cb278;
_ZN2nn3ldn16SetAdvertiseDataEPKvm_0 = __main_start + 0x009cb288;
_ZN2nn3ldn20MakeBroadcastAddressENS0_11Ipv4AddressENS0_10SubnetMaskE_0 = __main_start + 0x009cb298;
_ZN2nn3ldn20GetSecurityParameterEPNS0_17SecurityParameterE_0 = __main_start + 0x009cb2a8;
_ZN2nn6socket9InetHtonlEj_0 = __main_start + 0x009cb2b8;
_ZN2nn3ldn13CreateNetworkERKNS0_13NetworkConfigERKNS0_14SecurityConfigERKNS0_10UserConfigE_0 = __main_start + 0x009cb2c8;
_ZN2nn3ldn14DestroyNetworkEv_0 = __main_start + 0x009cb2d8;
_ZN2nn3ldn4ScanEPNS0_11NetworkInfoEPiiRKNS0_10ScanFilterEi_0 = __main_start + 0x009cb2e8;
_ZN2nn3ldn7ConnectERKNS0_11NetworkInfoERKNS0_14SecurityConfigERKNS0_10UserConfigEiNS0_13ConnectOptionE_0 = __main_start + 0x009cb2f8;
_ZN2nn3ldn16GetNetworkConfigEPNS0_13NetworkConfigE_0 = __main_start + 0x009cb308;
_ZN2nn3ldn10DisconnectEv_0 = __main_start + 0x009cb318;
_ZN2nn3ldn20CreateNetworkPrivateERKNS0_13NetworkConfigERKNS0_14SecurityConfigERKNS0_17SecurityParameterERKNS0_10UserConfigEiPKNS0_12AddressEntryE_0 = __main_start + 0x009cb328;
_ZN2nn3ldn14ConnectPrivateERKNS0_13NetworkConfigERKNS0_14SecurityConfigERKNS0_17SecurityParameterERKNS0_10UserConfigEiNS0_13ConnectOptionE_0 = __main_start + 0x009cb338;
_ZN2nn3ldn19GetDisconnectReasonEv_0 = __main_start + 0x009cb348;
fputs_0 = __main_start + 0x009cb358;
fputc_0 = __main_start + 0x009cb368;
tanf_0 = __main_start + 0x009cb378;
_ZN2nn5audio32InitializeAudioRendererParameterEPNS0_22AudioRendererParameterE_0 = __main_start + 0x009cb388;
_ZN2nn5audio30GetAudioRendererWorkBufferSizeERKNS0_22AudioRendererParameterE_0 = __main_start + 0x009cb398;
_ZN2nn5audio36GetAudioRendererConfigWorkBufferSizeERKNS0_22AudioRendererParameterE_0 = __main_start + 0x009cb3a8;
_ZN2nn5audio17OpenAudioRendererEPNS0_19AudioRendererHandleEPNS_2os11SystemEventERKNS0_22AudioRendererParameterEPvm_0 = __main_start + 0x009cb3b8;
_ZN2nn5audio29InitializeAudioRendererConfigEPNS0_19AudioRendererConfigERKNS0_22AudioRendererParameterEPvm_0 = __main_start + 0x009cb3c8;
_ZN2nn5audio15AcquireFinalMixEPNS0_19AudioRendererConfigEPNS0_12FinalMixTypeEi_0 = __main_start + 0x009cb3d8;
_ZN2nn5audio13AddDeviceSinkEPNS0_19AudioRendererConfigEPNS0_14DeviceSinkTypeEPNS0_12FinalMixTypeEPKaiPKc_0 = __main_start + 0x009cb3e8;
_ZN2nn5audio26RequestUpdateAudioRendererENS0_19AudioRendererHandleEPKNS0_19AudioRendererConfigE_0 = __main_start + 0x009cb3f8;
_ZN2nn5audio18StartAudioRendererENS0_19AudioRendererHandleE_0 = __main_start + 0x009cb408;
_ZN2nn5audio17AcquireMemoryPoolEPNS0_19AudioRendererConfigEPNS0_14MemoryPoolTypeEPvm_0 = __main_start + 0x009cb418;
_ZN2nn5audio23RequestAttachMemoryPoolEPNS0_14MemoryPoolTypeE_0 = __main_start + 0x009cb428;
_ZN2nn5audio16AcquireVoiceSlotEPNS0_19AudioRendererConfigEPNS0_9VoiceTypeEiiNS0_12SampleFormatEiPKvm_0 = __main_start + 0x009cb438;
_ZN2nn5audio19SetVoiceDestinationEPNS0_19AudioRendererConfigEPNS0_9VoiceTypeEPNS0_12FinalMixTypeE_0 = __main_start + 0x009cb448;
_ZN2nn5audio17SetVoiceMixVolumeEPNS0_9VoiceTypeEPNS0_12FinalMixTypeEfii_0 = __main_start + 0x009cb458;
_ZN2nn5audio14SetVoiceVolumeEPNS0_9VoiceTypeEf_0 = __main_start + 0x009cb468;
_ZN2nn5audio17SetVoicePlayStateEPNS0_9VoiceTypeENS1_9PlayStateE_0 = __main_start + 0x009cb478;
_ZN2nn5audio17StopAudioRendererENS0_19AudioRendererHandleE_0 = __main_start + 0x009cb488;
_ZN2nn5audio18CloseAudioRendererENS0_19AudioRendererHandleE_0 = __main_start + 0x009cb498;
_ZN2nn5audio21GetReleasedWaveBufferEPNS0_9VoiceTypeE_0 = __main_start + 0x009cb4a8;
_ZN2nn5audio16AppendWaveBufferEPNS0_9VoiceTypeEPKNS0_10WaveBufferE_0 = __main_start + 0x009cb4b8;
exp2f_0 = __main_start + 0x009cb4c8;
strrchr_0 = __main_start + 0x009cb4d8;
strchr_0 = __main_start + 0x009cb4e8;
log10f_0 = __main_start + 0x009cb4f8;
_ZN2nn2os24GetThreadCurrentPriorityEPKNS0_10ThreadTypeE_0 = __main_start + 0x009cb508;
memchr_0 = __main_start + 0x009cb518;
__assert_fail_0 = __main_start + 0x009cb528;
time_0 = __main_start + 0x009cb538;
__errno_location_0 = __main_start + 0x009cb548;
vfprintf_0 = __main_start + 0x009cb558;
strerror_0 = __main_start + 0x009cb568;
getpid_0 = __main_start + 0x009cb578;
open_0 = __main_start + 0x009cb588;
fstat_0 = __main_start + 0x009cb598;
close_0 = __main_start + 0x009cb5a8;
read_0 = __main_start + 0x009cb5b8;
_ZN2nn6socket9InetNtohlEj_0 = __main_start + 0x009cb5c8;
_ZN2nn6socket9InetNtohsEt_0 = __main_start + 0x009cb5d8;
_ZN2nn6socket9InetHtonsEt_0 = __main_start + 0x009cb5e8;
_ZN2nn6socket6SocketEiii_0 = __main_start + 0x009cb5f8;
_ZN2nn6socket5FcntlEiiz_0 = __main_start + 0x009cb608;
_ZN2nn6socket4BindEiPK8sockaddrj_0 = __main_start + 0x009cb618;
_ZN2nn6socket11GetSockNameEiP8sockaddrPj_0 = __main_start + 0x009cb628;
_ZN2nn6socket4PollEP6pollfdmi_0 = __main_start + 0x009cb638;
_ZN2nn6socket8RecvFromEiPvmiP8sockaddrPj_0 = __main_start + 0x009cb648;
_ZN2nn6socket10GetSockOptEiiiPvPj_0 = __main_start + 0x009cb658;
_ZN2nn6socket12GetLastErrnoEv_0 = __main_start + 0x009cb668;
_ZN2nn6socket6SendToEiPKvmiPK8sockaddrj_0 = __main_start + 0x009cb678;
_ZN2nn6socket7ConnectEiPK8sockaddrj_0 = __main_start + 0x009cb688;
_ZN2nn6socket6ListenEii_0 = __main_start + 0x009cb698;
_ZN2nn6socket6AcceptEiP8sockaddrPj_0 = __main_start + 0x009cb6a8;
_ZN2nn6socket4RecvEiPvmi_0 = __main_start + 0x009cb6b8;
_ZN2nn6socket4SendEiPKvmi_0 = __main_start + 0x009cb6c8;
_ZN2nn6socket5CloseEi_0 = __main_start + 0x009cb6d8;
_ZN2nn6socket8ShutdownEii_0 = __main_start + 0x009cb6e8;
_ZN2nn6socket10SetSockOptEiiiPKvj_0 = __main_start + 0x009cb6f8;
_ZN2nn6socket8InetNtoaE7in_addr_0 = __main_start + 0x009cb708;
_ZN2nn6socket8InetPtonEiPKcPv_0 = __main_start + 0x009cb718;
_ZN2nn6socket11GetAddrInfoEPKcS2_PK8addrinfoPPS3__0 = __main_start + 0x009cb728;
_ZN2nn6socket12FreeAddrInfoEP8addrinfo_0 = __main_start + 0x009cb738;
_ZN2nn6socket8InetNtopEiPKvPcj_0 = __main_start + 0x009cb748;
_ZN2nn4nifm26GetCurrentPrimaryIpAddressEP7in_addr_0 = __main_start + 0x009cb758;
strnlen_0 = __main_start + 0x009cb768;
_ZN2nn3ssl7Context6CreateENS1_10SslVersionE_0 = __main_start + 0x009cb778;
_ZN2nn3ssl7Context15ImportServerPkiEPmPKcjNS0_17CertificateFormatE_0 = __main_start + 0x009cb788;
memset_s_0 = __main_start + 0x009cb798;
_ZN2nn6crypto36GenerateCryptographicallyRandomBytesEPvm_0 = __main_start + 0x009cb7a8;
_ZN2nn6socket8InetAtonEPKcP7in_addr_0 = __main_start + 0x009cb7b8;
_ZN2nn6socket11GAIStrErrorEi_0 = __main_start + 0x009cb7c8;
nnsocketPoll_0 = __main_start + 0x009cb7d8;
nnsocketGetLastErrno_0 = __main_start + 0x009cb7e8;
nnsocketSetLastErrno_0 = __main_start + 0x009cb7f8;
nnsocketSend_0 = __main_start + 0x009cb808;
nnsocketRecv_0 = __main_start + 0x009cb818;
strncat_0 = __main_start + 0x009cb828;
strpbrk_0 = __main_start + 0x009cb838;
strtoul_0 = __main_start + 0x009cb848;
isxdigit_0 = __main_start + 0x009cb858;
nndetailDiagAbortFormatImpl_0 = __main_start + 0x009cb868;
_ZN2nn4nifm22GetCurrentProxySettingEPNS0_12ProxySettingE_0 = __main_start + 0x009cb878;
nnosGetSystemTick_0 = __main_start + 0x009cb888;
nnosGetSystemTickFrequency_0 = __main_start + 0x009cb898;
nnosConvertTickToNanoSeconds_0 = __main_start + 0x009cb8a8;
nnsocketGetHostByNameWithOptions_0 = __main_start + 0x009cb8b8;
nnosGetCurrentThread_0 = __main_start + 0x009cb8c8;
nnosGetThreadPriority_0 = __main_start + 0x009cb8d8;
nnosCreateThread_0 = __main_start + 0x009cb8e8;
nnResultIsFailure_0 = __main_start + 0x009cb8f8;
nnosSetThreadNamePointer_0 = __main_start + 0x009cb908;
nnosDestroyThread_0 = __main_start + 0x009cb918;
nnosInitializeMutex_0 = __main_start + 0x009cb928;
nnosInitializeEvent_0 = __main_start + 0x009cb938;
nnosStartThread_0 = __main_start + 0x009cb948;
nnosWaitEvent_0 = __main_start + 0x009cb958;
nnosFinalizeEvent_0 = __main_start + 0x009cb968;
nnosSignalEvent_0 = __main_start + 0x009cb978;
nnosUnlockMutex_0 = __main_start + 0x009cb988;
nnosLockMutex_0 = __main_start + 0x009cb998;
nnosWaitThread_0 = __main_start + 0x009cb9a8;
nnsocketCancel_0 = __main_start + 0x009cb9b8;
nnosSleepThread_0 = __main_start + 0x009cb9c8;
nnosFinalizeMutex_0 = __main_start + 0x009cb9d8;
nnsocketRequestCancelHandle_0 = __main_start + 0x009cb9e8;
nnsocketGetPeerName_0 = __main_start + 0x009cb9f8;
nnsocketGetSockName_0 = __main_start + 0x009cba08;
nnsocketInetNtohs_0 = __main_start + 0x009cba18;
nnsocketGetSockOpt_0 = __main_start + 0x009cba28;
nnsocketClose_0 = __main_start + 0x009cba38;
nnsocketSocket_0 = __main_start + 0x009cba48;
nnsocketSetSockOpt_0 = __main_start + 0x009cba58;
nnsocketConnect_0 = __main_start + 0x009cba68;
nnsocketInetHtons_0 = __main_start + 0x009cba78;
nnsocketBind_0 = __main_start + 0x009cba88;
getenv_0 = __main_start + 0x009cba98;
nnsocketFcntl_0 = __main_start + 0x009cbaa8;
isalnum_0 = __main_start + 0x009cbab8;
gmtime_0 = __main_start + 0x009cbac8;
nnsslInitialize_0 = __main_start + 0x009cbad8;
nnResultGetModule_0 = __main_start + 0x009cbae8;
nnResultGetDescription_0 = __main_start + 0x009cbaf8;
nnsslConnectionDoHandshakeWithCertBuffer_0 = __main_start + 0x009cbb08;
nnsslContextGetContextId_0 = __main_start + 0x009cbb18;
nnsslConnectionCreate_0 = __main_start + 0x009cbb28;
nnsslConnectionSetOption_0 = __main_start + 0x009cbb38;
nnsslConnectionSetSocketDescriptor_0 = __main_start + 0x009cbb48;
nnsslConnectionSetHostName_0 = __main_start + 0x009cbb58;
nnsslConnectionSetVerifyOption_0 = __main_start + 0x009cbb68;
nnsslConnectionSetSessionCacheMode_0 = __main_start + 0x009cbb78;
nnsslContextDestroy_0 = __main_start + 0x009cbb88;
nnsslConnectionGetVerifyCertError_0 = __main_start + 0x009cbb98;
nnsslConnectionGetConnectionId_0 = __main_start + 0x009cbba8;
nnsslConnectionDestroy_0 = __main_start + 0x009cbbb8;
nnsslConnectionSetIoMode_0 = __main_start + 0x009cbbc8;
nnsslConnectionPeek_0 = __main_start + 0x009cbbd8;
nnsslConnectionPending_0 = __main_start + 0x009cbbe8;
nnResultIsSuccess_0 = __main_start + 0x009cbbf8;
nnsslConnectionRead_0 = __main_start + 0x009cbc08;
nnsslConnectionWrite_0 = __main_start + 0x009cbc18;